
bomb：     文件格式 elf32-i386


Disassembly of section .init:

080486f4 <_init>:
 80486f4:	53                   	push   %ebx
 80486f5:	83 ec 08             	sub    $0x8,%esp
 80486f8:	e8 13 02 00 00       	call   8048910 <__x86.get_pc_thunk.bx>
 80486fd:	81 c3 03 39 00 00    	add    $0x3903,%ebx
 8048703:	8b 83 fc ff ff ff    	mov    -0x4(%ebx),%eax
 8048709:	85 c0                	test   %eax,%eax
 804870b:	74 05                	je     8048712 <_init+0x1e>
 804870d:	e8 be 01 00 00       	call   80488d0 <__sprintf_chk@plt+0x10>
 8048712:	83 c4 08             	add    $0x8,%esp
 8048715:	5b                   	pop    %ebx
 8048716:	c3                   	ret    

Disassembly of section .plt:

08048720 <read@plt-0x10>:
 8048720:	ff 35 04 c0 04 08    	pushl  0x804c004
 8048726:	ff 25 08 c0 04 08    	jmp    *0x804c008
 804872c:	00 00                	add    %al,(%eax)
	...

08048730 <read@plt>:
 8048730:	ff 25 0c c0 04 08    	jmp    *0x804c00c
 8048736:	68 00 00 00 00       	push   $0x0
 804873b:	e9 e0 ff ff ff       	jmp    8048720 <_init+0x2c>

08048740 <fflush@plt>:
 8048740:	ff 25 10 c0 04 08    	jmp    *0x804c010
 8048746:	68 08 00 00 00       	push   $0x8
 804874b:	e9 d0 ff ff ff       	jmp    8048720 <_init+0x2c>

08048750 <fgets@plt>:
 8048750:	ff 25 14 c0 04 08    	jmp    *0x804c014
 8048756:	68 10 00 00 00       	push   $0x10
 804875b:	e9 c0 ff ff ff       	jmp    8048720 <_init+0x2c>

08048760 <signal@plt>:
 8048760:	ff 25 18 c0 04 08    	jmp    *0x804c018
 8048766:	68 18 00 00 00       	push   $0x18
 804876b:	e9 b0 ff ff ff       	jmp    8048720 <_init+0x2c>

08048770 <sleep@plt>:
 8048770:	ff 25 1c c0 04 08    	jmp    *0x804c01c
 8048776:	68 20 00 00 00       	push   $0x20
 804877b:	e9 a0 ff ff ff       	jmp    8048720 <_init+0x2c>

08048780 <alarm@plt>:
 8048780:	ff 25 20 c0 04 08    	jmp    *0x804c020
 8048786:	68 28 00 00 00       	push   $0x28
 804878b:	e9 90 ff ff ff       	jmp    8048720 <_init+0x2c>

08048790 <__stack_chk_fail@plt>:
 8048790:	ff 25 24 c0 04 08    	jmp    *0x804c024
 8048796:	68 30 00 00 00       	push   $0x30
 804879b:	e9 80 ff ff ff       	jmp    8048720 <_init+0x2c>

080487a0 <strcpy@plt>:
 80487a0:	ff 25 28 c0 04 08    	jmp    *0x804c028
 80487a6:	68 38 00 00 00       	push   $0x38
 80487ab:	e9 70 ff ff ff       	jmp    8048720 <_init+0x2c>

080487b0 <getenv@plt>:
 80487b0:	ff 25 2c c0 04 08    	jmp    *0x804c02c
 80487b6:	68 40 00 00 00       	push   $0x40
 80487bb:	e9 60 ff ff ff       	jmp    8048720 <_init+0x2c>

080487c0 <puts@plt>:
 80487c0:	ff 25 30 c0 04 08    	jmp    *0x804c030
 80487c6:	68 48 00 00 00       	push   $0x48
 80487cb:	e9 50 ff ff ff       	jmp    8048720 <_init+0x2c>

080487d0 <__memmove_chk@plt>:
 80487d0:	ff 25 34 c0 04 08    	jmp    *0x804c034
 80487d6:	68 50 00 00 00       	push   $0x50
 80487db:	e9 40 ff ff ff       	jmp    8048720 <_init+0x2c>

080487e0 <exit@plt>:
 80487e0:	ff 25 38 c0 04 08    	jmp    *0x804c038
 80487e6:	68 58 00 00 00       	push   $0x58
 80487eb:	e9 30 ff ff ff       	jmp    8048720 <_init+0x2c>

080487f0 <__libc_start_main@plt>:
 80487f0:	ff 25 3c c0 04 08    	jmp    *0x804c03c
 80487f6:	68 60 00 00 00       	push   $0x60
 80487fb:	e9 20 ff ff ff       	jmp    8048720 <_init+0x2c>

08048800 <write@plt>:
 8048800:	ff 25 40 c0 04 08    	jmp    *0x804c040
 8048806:	68 68 00 00 00       	push   $0x68
 804880b:	e9 10 ff ff ff       	jmp    8048720 <_init+0x2c>

08048810 <__isoc99_sscanf@plt>:
 8048810:	ff 25 44 c0 04 08    	jmp    *0x804c044
 8048816:	68 70 00 00 00       	push   $0x70
 804881b:	e9 00 ff ff ff       	jmp    8048720 <_init+0x2c>

08048820 <fopen@plt>:
 8048820:	ff 25 48 c0 04 08    	jmp    *0x804c048
 8048826:	68 78 00 00 00       	push   $0x78
 804882b:	e9 f0 fe ff ff       	jmp    8048720 <_init+0x2c>

08048830 <__errno_location@plt>:
 8048830:	ff 25 4c c0 04 08    	jmp    *0x804c04c
 8048836:	68 80 00 00 00       	push   $0x80
 804883b:	e9 e0 fe ff ff       	jmp    8048720 <_init+0x2c>

08048840 <__printf_chk@plt>:
 8048840:	ff 25 50 c0 04 08    	jmp    *0x804c050
 8048846:	68 88 00 00 00       	push   $0x88
 804884b:	e9 d0 fe ff ff       	jmp    8048720 <_init+0x2c>

08048850 <socket@plt>:
 8048850:	ff 25 54 c0 04 08    	jmp    *0x804c054
 8048856:	68 90 00 00 00       	push   $0x90
 804885b:	e9 c0 fe ff ff       	jmp    8048720 <_init+0x2c>

08048860 <__fprintf_chk@plt>:
 8048860:	ff 25 58 c0 04 08    	jmp    *0x804c058
 8048866:	68 98 00 00 00       	push   $0x98
 804886b:	e9 b0 fe ff ff       	jmp    8048720 <_init+0x2c>

08048870 <gethostbyname@plt>:
 8048870:	ff 25 5c c0 04 08    	jmp    *0x804c05c
 8048876:	68 a0 00 00 00       	push   $0xa0
 804887b:	e9 a0 fe ff ff       	jmp    8048720 <_init+0x2c>

08048880 <strtol@plt>:
 8048880:	ff 25 60 c0 04 08    	jmp    *0x804c060
 8048886:	68 a8 00 00 00       	push   $0xa8
 804888b:	e9 90 fe ff ff       	jmp    8048720 <_init+0x2c>

08048890 <connect@plt>:
 8048890:	ff 25 64 c0 04 08    	jmp    *0x804c064
 8048896:	68 b0 00 00 00       	push   $0xb0
 804889b:	e9 80 fe ff ff       	jmp    8048720 <_init+0x2c>

080488a0 <close@plt>:
 80488a0:	ff 25 68 c0 04 08    	jmp    *0x804c068
 80488a6:	68 b8 00 00 00       	push   $0xb8
 80488ab:	e9 70 fe ff ff       	jmp    8048720 <_init+0x2c>

080488b0 <__ctype_b_loc@plt>:
 80488b0:	ff 25 6c c0 04 08    	jmp    *0x804c06c
 80488b6:	68 c0 00 00 00       	push   $0xc0
 80488bb:	e9 60 fe ff ff       	jmp    8048720 <_init+0x2c>

080488c0 <__sprintf_chk@plt>:
 80488c0:	ff 25 70 c0 04 08    	jmp    *0x804c070
 80488c6:	68 c8 00 00 00       	push   $0xc8
 80488cb:	e9 50 fe ff ff       	jmp    8048720 <_init+0x2c>

Disassembly of section .plt.got:

080488d0 <.plt.got>:
 80488d0:	ff 25 fc bf 04 08    	jmp    *0x804bffc
 80488d6:	66 90                	xchg   %ax,%ax

Disassembly of section .text:

080488e0 <_start>:
 80488e0:	31 ed                	xor    %ebp,%ebp
 80488e2:	5e                   	pop    %esi
 80488e3:	89 e1                	mov    %esp,%ecx
 80488e5:	83 e4 f0             	and    $0xfffffff0,%esp
 80488e8:	50                   	push   %eax
 80488e9:	54                   	push   %esp
 80488ea:	52                   	push   %edx
 80488eb:	68 90 9e 04 08       	push   $0x8049e90
 80488f0:	68 30 9e 04 08       	push   $0x8049e30
 80488f5:	51                   	push   %ecx
 80488f6:	56                   	push   %esi
 80488f7:	68 db 89 04 08       	push   $0x80489db
 80488fc:	e8 ef fe ff ff       	call   80487f0 <__libc_start_main@plt>
 8048901:	f4                   	hlt    
 8048902:	66 90                	xchg   %ax,%ax
 8048904:	66 90                	xchg   %ax,%ax
 8048906:	66 90                	xchg   %ax,%ax
 8048908:	66 90                	xchg   %ax,%ax
 804890a:	66 90                	xchg   %ax,%ax
 804890c:	66 90                	xchg   %ax,%ax
 804890e:	66 90                	xchg   %ax,%ax

08048910 <__x86.get_pc_thunk.bx>:
 8048910:	8b 1c 24             	mov    (%esp),%ebx
 8048913:	c3                   	ret    
 8048914:	66 90                	xchg   %ax,%ax
 8048916:	66 90                	xchg   %ax,%ax
 8048918:	66 90                	xchg   %ax,%ax
 804891a:	66 90                	xchg   %ax,%ax
 804891c:	66 90                	xchg   %ax,%ax
 804891e:	66 90                	xchg   %ax,%ax

08048920 <deregister_tm_clones>:
 8048920:	b8 a3 c3 04 08       	mov    $0x804c3a3,%eax
 8048925:	2d a0 c3 04 08       	sub    $0x804c3a0,%eax
 804892a:	83 f8 06             	cmp    $0x6,%eax
 804892d:	76 1a                	jbe    8048949 <deregister_tm_clones+0x29>
 804892f:	b8 00 00 00 00       	mov    $0x0,%eax
 8048934:	85 c0                	test   %eax,%eax
 8048936:	74 11                	je     8048949 <deregister_tm_clones+0x29>
 8048938:	55                   	push   %ebp
 8048939:	89 e5                	mov    %esp,%ebp
 804893b:	83 ec 14             	sub    $0x14,%esp
 804893e:	68 a0 c3 04 08       	push   $0x804c3a0
 8048943:	ff d0                	call   *%eax
 8048945:	83 c4 10             	add    $0x10,%esp
 8048948:	c9                   	leave  
 8048949:	f3 c3                	repz ret 
 804894b:	90                   	nop
 804894c:	8d 74 26 00          	lea    0x0(%esi,%eiz,1),%esi

08048950 <register_tm_clones>:
 8048950:	b8 a0 c3 04 08       	mov    $0x804c3a0,%eax
 8048955:	2d a0 c3 04 08       	sub    $0x804c3a0,%eax
 804895a:	c1 f8 02             	sar    $0x2,%eax
 804895d:	89 c2                	mov    %eax,%edx
 804895f:	c1 ea 1f             	shr    $0x1f,%edx
 8048962:	01 d0                	add    %edx,%eax
 8048964:	d1 f8                	sar    %eax
 8048966:	74 1b                	je     8048983 <register_tm_clones+0x33>
 8048968:	ba 00 00 00 00       	mov    $0x0,%edx
 804896d:	85 d2                	test   %edx,%edx
 804896f:	74 12                	je     8048983 <register_tm_clones+0x33>
 8048971:	55                   	push   %ebp
 8048972:	89 e5                	mov    %esp,%ebp
 8048974:	83 ec 10             	sub    $0x10,%esp
 8048977:	50                   	push   %eax
 8048978:	68 a0 c3 04 08       	push   $0x804c3a0
 804897d:	ff d2                	call   *%edx
 804897f:	83 c4 10             	add    $0x10,%esp
 8048982:	c9                   	leave  
 8048983:	f3 c3                	repz ret 
 8048985:	8d 74 26 00          	lea    0x0(%esi,%eiz,1),%esi
 8048989:	8d bc 27 00 00 00 00 	lea    0x0(%edi,%eiz,1),%edi

08048990 <__do_global_dtors_aux>:
 8048990:	80 3d c8 c3 04 08 00 	cmpb   $0x0,0x804c3c8
 8048997:	75 13                	jne    80489ac <__do_global_dtors_aux+0x1c>
 8048999:	55                   	push   %ebp
 804899a:	89 e5                	mov    %esp,%ebp
 804899c:	83 ec 08             	sub    $0x8,%esp
 804899f:	e8 7c ff ff ff       	call   8048920 <deregister_tm_clones>
 80489a4:	c6 05 c8 c3 04 08 01 	movb   $0x1,0x804c3c8
 80489ab:	c9                   	leave  
 80489ac:	f3 c3                	repz ret 
 80489ae:	66 90                	xchg   %ax,%ax

080489b0 <frame_dummy>:
 80489b0:	b8 10 bf 04 08       	mov    $0x804bf10,%eax
 80489b5:	8b 10                	mov    (%eax),%edx
 80489b7:	85 d2                	test   %edx,%edx
 80489b9:	75 05                	jne    80489c0 <frame_dummy+0x10>
 80489bb:	eb 93                	jmp    8048950 <register_tm_clones>
 80489bd:	8d 76 00             	lea    0x0(%esi),%esi
 80489c0:	ba 00 00 00 00       	mov    $0x0,%edx
 80489c5:	85 d2                	test   %edx,%edx
 80489c7:	74 f2                	je     80489bb <frame_dummy+0xb>
 80489c9:	55                   	push   %ebp
 80489ca:	89 e5                	mov    %esp,%ebp
 80489cc:	83 ec 14             	sub    $0x14,%esp
 80489cf:	50                   	push   %eax
 80489d0:	ff d2                	call   *%edx
 80489d2:	83 c4 10             	add    $0x10,%esp
 80489d5:	c9                   	leave  
 80489d6:	e9 75 ff ff ff       	jmp    8048950 <register_tm_clones>

080489db <main>:
 80489db:	8d 4c 24 04          	lea    0x4(%esp),%ecx
 80489df:	83 e4 f0             	and    $0xfffffff0,%esp
 80489e2:	ff 71 fc             	pushl  -0x4(%ecx)
 80489e5:	55                   	push   %ebp
 80489e6:	89 e5                	mov    %esp,%ebp
 80489e8:	53                   	push   %ebx
 80489e9:	51                   	push   %ecx
 80489ea:	8b 01                	mov    (%ecx),%eax
 80489ec:	8b 59 04             	mov    0x4(%ecx),%ebx
 80489ef:	83 f8 01             	cmp    $0x1,%eax
 80489f2:	0f 84 01 01 00 00    	je     8048af9 <main+0x11e>
 80489f8:	83 f8 02             	cmp    $0x2,%eax
 80489fb:	0f 85 24 01 00 00    	jne    8048b25 <main+0x14a>
 8048a01:	83 ec 08             	sub    $0x8,%esp
 8048a04:	68 c8 9e 04 08       	push   $0x8049ec8
 8048a09:	ff 73 04             	pushl  0x4(%ebx)
 8048a0c:	e8 0f fe ff ff       	call   8048820 <fopen@plt>
 8048a11:	a3 d0 c3 04 08       	mov    %eax,0x804c3d0
 8048a16:	83 c4 10             	add    $0x10,%esp
 8048a19:	85 c0                	test   %eax,%eax
 8048a1b:	0f 84 e7 00 00 00    	je     8048b08 <main+0x12d>
 8048a21:	e8 30 06 00 00       	call   8049056 <initialize_bomb>
 8048a26:	83 ec 0c             	sub    $0xc,%esp
 8048a29:	68 4c 9f 04 08       	push   $0x8049f4c
 8048a2e:	e8 8d fd ff ff       	call   80487c0 <puts@plt>
 8048a33:	c7 04 24 88 9f 04 08 	movl   $0x8049f88,(%esp)
 8048a3a:	e8 81 fd ff ff       	call   80487c0 <puts@plt>
 8048a3f:	e8 02 07 00 00       	call   8049146 <read_line>
 8048a44:	89 04 24             	mov    %eax,(%esp)
 8048a47:	e8 f6 00 00 00       	call   8048b42 <phase_1>
 8048a4c:	e8 f4 07 00 00       	call   8049245 <phase_defused>
 8048a51:	c7 04 24 b4 9f 04 08 	movl   $0x8049fb4,(%esp)
 8048a58:	e8 63 fd ff ff       	call   80487c0 <puts@plt>
 8048a5d:	e8 e4 06 00 00       	call   8049146 <read_line>
 8048a62:	89 04 24             	mov    %eax,(%esp)
 8048a65:	e8 fb 00 00 00       	call   8048b65 <phase_2>
 8048a6a:	e8 d6 07 00 00       	call   8049245 <phase_defused>
 8048a6f:	c7 04 24 01 9f 04 08 	movl   $0x8049f01,(%esp)
 8048a76:	e8 45 fd ff ff       	call   80487c0 <puts@plt>
 8048a7b:	e8 c6 06 00 00       	call   8049146 <read_line>
 8048a80:	89 04 24             	mov    %eax,(%esp)
 8048a83:	e8 44 01 00 00       	call   8048bcc <phase_3>
 8048a88:	e8 b8 07 00 00       	call   8049245 <phase_defused>
 8048a8d:	c7 04 24 1f 9f 04 08 	movl   $0x8049f1f,(%esp)
 8048a94:	e8 27 fd ff ff       	call   80487c0 <puts@plt>
 8048a99:	e8 a8 06 00 00       	call   8049146 <read_line>
 8048a9e:	89 04 24             	mov    %eax,(%esp)
 8048aa1:	e8 59 02 00 00       	call   8048cff <phase_4>
 8048aa6:	e8 9a 07 00 00       	call   8049245 <phase_defused>
 8048aab:	c7 04 24 e0 9f 04 08 	movl   $0x8049fe0,(%esp)
 8048ab2:	e8 09 fd ff ff       	call   80487c0 <puts@plt>
 8048ab7:	e8 8a 06 00 00       	call   8049146 <read_line>
 8048abc:	89 04 24             	mov    %eax,(%esp)
 8048abf:	e8 b4 02 00 00       	call   8048d78 <phase_5>
 8048ac4:	e8 7c 07 00 00       	call   8049245 <phase_defused>
 8048ac9:	c7 04 24 2e 9f 04 08 	movl   $0x8049f2e,(%esp)
 8048ad0:	e8 eb fc ff ff       	call   80487c0 <puts@plt>
 8048ad5:	e8 6c 06 00 00       	call   8049146 <read_line>
 8048ada:	89 04 24             	mov    %eax,(%esp)
 8048add:	e8 de 02 00 00       	call   8048dc0 <phase_6>
 8048ae2:	e8 5e 07 00 00       	call   8049245 <phase_defused>
 8048ae7:	83 c4 10             	add    $0x10,%esp
 8048aea:	b8 00 00 00 00       	mov    $0x0,%eax
 8048aef:	8d 65 f8             	lea    -0x8(%ebp),%esp
 8048af2:	59                   	pop    %ecx
 8048af3:	5b                   	pop    %ebx
 8048af4:	5d                   	pop    %ebp
 8048af5:	8d 61 fc             	lea    -0x4(%ecx),%esp
 8048af8:	c3                   	ret    
 8048af9:	a1 c0 c3 04 08       	mov    0x804c3c0,%eax
 8048afe:	a3 d0 c3 04 08       	mov    %eax,0x804c3d0
 8048b03:	e9 19 ff ff ff       	jmp    8048a21 <main+0x46>
 8048b08:	ff 73 04             	pushl  0x4(%ebx)
 8048b0b:	ff 33                	pushl  (%ebx)
 8048b0d:	68 ca 9e 04 08       	push   $0x8049eca
 8048b12:	6a 01                	push   $0x1
 8048b14:	e8 27 fd ff ff       	call   8048840 <__printf_chk@plt>
 8048b19:	c7 04 24 08 00 00 00 	movl   $0x8,(%esp)
 8048b20:	e8 bb fc ff ff       	call   80487e0 <exit@plt>
 8048b25:	83 ec 04             	sub    $0x4,%esp
 8048b28:	ff 33                	pushl  (%ebx)
 8048b2a:	68 e7 9e 04 08       	push   $0x8049ee7
 8048b2f:	6a 01                	push   $0x1
 8048b31:	e8 0a fd ff ff       	call   8048840 <__printf_chk@plt>
 8048b36:	c7 04 24 08 00 00 00 	movl   $0x8,(%esp)
 8048b3d:	e8 9e fc ff ff       	call   80487e0 <exit@plt>

08048b42 <phase_1>:
 8048b42:	83 ec 14             	sub    $0x14,%esp
 8048b45:	68 04 a0 04 08       	push   $0x804a004
 8048b4a:	ff 74 24 1c          	pushl  0x1c(%esp)
 8048b4e:	e8 9e 04 00 00       	call   8048ff1 <strings_not_equal>
 8048b53:	83 c4 10             	add    $0x10,%esp
 8048b56:	85 c0                	test   %eax,%eax
 8048b58:	75 04                	jne    8048b5e <phase_1+0x1c>
 8048b5a:	83 c4 0c             	add    $0xc,%esp
 8048b5d:	c3                   	ret    
 8048b5e:	e8 83 05 00 00       	call   80490e6 <explode_bomb>
 8048b63:	eb f5                	jmp    8048b5a <phase_1+0x18>

08048b65 <phase_2>:
 8048b65:	56                   	push   %esi
 8048b66:	53                   	push   %ebx
 8048b67:	83 ec 2c             	sub    $0x2c,%esp
 8048b6a:	65 a1 14 00 00 00    	mov    %gs:0x14,%eax
 8048b70:	89 44 24 24          	mov    %eax,0x24(%esp)
 8048b74:	31 c0                	xor    %eax,%eax
 8048b76:	8d 44 24 0c          	lea    0xc(%esp),%eax
 8048b7a:	50                   	push   %eax
 8048b7b:	ff 74 24 3c          	pushl  0x3c(%esp)
 8048b7f:	e8 87 05 00 00       	call   804910b <read_six_numbers>
 8048b84:	83 c4 10             	add    $0x10,%esp
 8048b87:	83 7c 24 04 01       	cmpl   $0x1,0x4(%esp)
 8048b8c:	74 05                	je     8048b93 <phase_2+0x2e>
 8048b8e:	e8 53 05 00 00       	call   80490e6 <explode_bomb>
 8048b93:	8d 5c 24 04          	lea    0x4(%esp),%ebx
 8048b97:	8d 74 24 18          	lea    0x18(%esp),%esi
 8048b9b:	eb 07                	jmp    8048ba4 <phase_2+0x3f>
 8048b9d:	83 c3 04             	add    $0x4,%ebx
 8048ba0:	39 f3                	cmp    %esi,%ebx
 8048ba2:	74 10                	je     8048bb4 <phase_2+0x4f>
 8048ba4:	8b 03                	mov    (%ebx),%eax
 8048ba6:	01 c0                	add    %eax,%eax
 8048ba8:	39 43 04             	cmp    %eax,0x4(%ebx)
 8048bab:	74 f0                	je     8048b9d <phase_2+0x38>
 8048bad:	e8 34 05 00 00       	call   80490e6 <explode_bomb>
 8048bb2:	eb e9                	jmp    8048b9d <phase_2+0x38>
 8048bb4:	8b 44 24 1c          	mov    0x1c(%esp),%eax
 8048bb8:	65 33 05 14 00 00 00 	xor    %gs:0x14,%eax
 8048bbf:	75 06                	jne    8048bc7 <phase_2+0x62>
 8048bc1:	83 c4 24             	add    $0x24,%esp
 8048bc4:	5b                   	pop    %ebx
 8048bc5:	5e                   	pop    %esi
 8048bc6:	c3                   	ret    
 8048bc7:	e8 c4 fb ff ff       	call   8048790 <__stack_chk_fail@plt>

08048bcc <phase_3>:
 8048bcc:	83 ec 1c             	sub    $0x1c,%esp
 8048bcf:	65 a1 14 00 00 00    	mov    %gs:0x14,%eax
 8048bd5:	89 44 24 0c          	mov    %eax,0xc(%esp)
 8048bd9:	31 c0                	xor    %eax,%eax
 8048bdb:	8d 44 24 08          	lea    0x8(%esp),%eax
 8048bdf:	50                   	push   %eax
 8048be0:	8d 44 24 08          	lea    0x8(%esp),%eax
 8048be4:	50                   	push   %eax
 8048be5:	68 d7 a1 04 08       	push   $0x804a1d7
 8048bea:	ff 74 24 2c          	pushl  0x2c(%esp)
 8048bee:	e8 1d fc ff ff       	call   8048810 <__isoc99_sscanf@plt>
 8048bf3:	83 c4 10             	add    $0x10,%esp
 8048bf6:	83 f8 01             	cmp    $0x1,%eax
 8048bf9:	7e 16                	jle    8048c11 <phase_3+0x45>
 8048bfb:	83 7c 24 04 07       	cmpl   $0x7,0x4(%esp)
 8048c00:	0f 87 8e 00 00 00    	ja     8048c94 <phase_3+0xc8>
 8048c06:	8b 44 24 04          	mov    0x4(%esp),%eax
 8048c0a:	ff 24 85 40 a0 04 08 	jmp    *0x804a040(,%eax,4)
 8048c11:	e8 d0 04 00 00       	call   80490e6 <explode_bomb>
 8048c16:	eb e3                	jmp    8048bfb <phase_3+0x2f>
 8048c18:	b8 a6 03 00 00       	mov    $0x3a6,%eax
 8048c1d:	eb 05                	jmp    8048c24 <phase_3+0x58>
 8048c1f:	b8 00 00 00 00       	mov    $0x0,%eax
 8048c24:	2d 41 01 00 00       	sub    $0x141,%eax
 8048c29:	05 40 02 00 00       	add    $0x240,%eax
 8048c2e:	2d a8 03 00 00       	sub    $0x3a8,%eax
 8048c33:	05 a8 03 00 00       	add    $0x3a8,%eax
 8048c38:	2d a8 03 00 00       	sub    $0x3a8,%eax
 8048c3d:	05 a8 03 00 00       	add    $0x3a8,%eax
 8048c42:	2d a8 03 00 00       	sub    $0x3a8,%eax
 8048c47:	83 7c 24 04 05       	cmpl   $0x5,0x4(%esp)
 8048c4c:	7f 06                	jg     8048c54 <phase_3+0x88>
 8048c4e:	3b 44 24 08          	cmp    0x8(%esp),%eax
 8048c52:	74 05                	je     8048c59 <phase_3+0x8d>
 8048c54:	e8 8d 04 00 00       	call   80490e6 <explode_bomb>
 8048c59:	8b 44 24 0c          	mov    0xc(%esp),%eax
 8048c5d:	65 33 05 14 00 00 00 	xor    %gs:0x14,%eax
 8048c64:	75 3a                	jne    8048ca0 <phase_3+0xd4>
 8048c66:	83 c4 1c             	add    $0x1c,%esp
 8048c69:	c3                   	ret    
 8048c6a:	b8 00 00 00 00       	mov    $0x0,%eax
 8048c6f:	eb b8                	jmp    8048c29 <phase_3+0x5d>
 8048c71:	b8 00 00 00 00       	mov    $0x0,%eax
 8048c76:	eb b6                	jmp    8048c2e <phase_3+0x62>
 8048c78:	b8 00 00 00 00       	mov    $0x0,%eax
 8048c7d:	eb b4                	jmp    8048c33 <phase_3+0x67>
 8048c7f:	b8 00 00 00 00       	mov    $0x0,%eax
 8048c84:	eb b2                	jmp    8048c38 <phase_3+0x6c>
 8048c86:	b8 00 00 00 00       	mov    $0x0,%eax
 8048c8b:	eb b0                	jmp    8048c3d <phase_3+0x71>
 8048c8d:	b8 00 00 00 00       	mov    $0x0,%eax
 8048c92:	eb ae                	jmp    8048c42 <phase_3+0x76>
 8048c94:	e8 4d 04 00 00       	call   80490e6 <explode_bomb>
 8048c99:	b8 00 00 00 00       	mov    $0x0,%eax
 8048c9e:	eb a7                	jmp    8048c47 <phase_3+0x7b>
 8048ca0:	e8 eb fa ff ff       	call   8048790 <__stack_chk_fail@plt>

08048ca5 <func4>:
 8048ca5:	56                   	push   %esi
 8048ca6:	53                   	push   %ebx
 8048ca7:	83 ec 04             	sub    $0x4,%esp
 8048caa:	8b 44 24 10          	mov    0x10(%esp),%eax
 8048cae:	8b 54 24 14          	mov    0x14(%esp),%edx
 8048cb2:	8b 4c 24 18          	mov    0x18(%esp),%ecx
 8048cb6:	89 ce                	mov    %ecx,%esi
 8048cb8:	29 d6                	sub    %edx,%esi
 8048cba:	89 f3                	mov    %esi,%ebx
 8048cbc:	c1 eb 1f             	shr    $0x1f,%ebx
 8048cbf:	01 f3                	add    %esi,%ebx
 8048cc1:	d1 fb                	sar    %ebx
 8048cc3:	01 d3                	add    %edx,%ebx
 8048cc5:	39 c3                	cmp    %eax,%ebx
 8048cc7:	7f 0c                	jg     8048cd5 <func4+0x30>
 8048cc9:	39 c3                	cmp    %eax,%ebx
 8048ccb:	7c 1d                	jl     8048cea <func4+0x45>
 8048ccd:	89 d8                	mov    %ebx,%eax
 8048ccf:	83 c4 04             	add    $0x4,%esp
 8048cd2:	5b                   	pop    %ebx
 8048cd3:	5e                   	pop    %esi
 8048cd4:	c3                   	ret    
 8048cd5:	83 ec 04             	sub    $0x4,%esp
 8048cd8:	8d 4b ff             	lea    -0x1(%ebx),%ecx
 8048cdb:	51                   	push   %ecx
 8048cdc:	52                   	push   %edx
 8048cdd:	50                   	push   %eax
 8048cde:	e8 c2 ff ff ff       	call   8048ca5 <func4>
 8048ce3:	83 c4 10             	add    $0x10,%esp
 8048ce6:	01 c3                	add    %eax,%ebx
 8048ce8:	eb e3                	jmp    8048ccd <func4+0x28>
 8048cea:	83 ec 04             	sub    $0x4,%esp
 8048ced:	51                   	push   %ecx
 8048cee:	8d 53 01             	lea    0x1(%ebx),%edx
 8048cf1:	52                   	push   %edx
 8048cf2:	50                   	push   %eax
 8048cf3:	e8 ad ff ff ff       	call   8048ca5 <func4>
 8048cf8:	83 c4 10             	add    $0x10,%esp
 8048cfb:	01 c3                	add    %eax,%ebx
 8048cfd:	eb ce                	jmp    8048ccd <func4+0x28>

08048cff <phase_4>:
 8048cff:	83 ec 1c             	sub    $0x1c,%esp
 8048d02:	65 a1 14 00 00 00    	mov    %gs:0x14,%eax
 8048d08:	89 44 24 0c          	mov    %eax,0xc(%esp)
 8048d0c:	31 c0                	xor    %eax,%eax
 8048d0e:	8d 44 24 08          	lea    0x8(%esp),%eax
 8048d12:	50                   	push   %eax
 8048d13:	8d 44 24 08          	lea    0x8(%esp),%eax
 8048d17:	50                   	push   %eax
 8048d18:	68 d7 a1 04 08       	push   $0x804a1d7
 8048d1d:	ff 74 24 2c          	pushl  0x2c(%esp)
 8048d21:	e8 ea fa ff ff       	call   8048810 <__isoc99_sscanf@plt>
 8048d26:	83 c4 10             	add    $0x10,%esp
 8048d29:	83 f8 02             	cmp    $0x2,%eax
 8048d2c:	74 33                	je     8048d61 <phase_4+0x62>
 8048d2e:	e8 b3 03 00 00       	call   80490e6 <explode_bomb>
 8048d33:	83 ec 04             	sub    $0x4,%esp
 8048d36:	6a 0e                	push   $0xe
 8048d38:	6a 00                	push   $0x0
 8048d3a:	ff 74 24 10          	pushl  0x10(%esp)
 8048d3e:	e8 62 ff ff ff       	call   8048ca5 <func4>
 8048d43:	83 c4 10             	add    $0x10,%esp
 8048d46:	83 f8 0b             	cmp    $0xb,%eax
 8048d49:	74 1f                	je     8048d6a <phase_4+0x6b>
 8048d4b:	e8 96 03 00 00       	call   80490e6 <explode_bomb>
 8048d50:	8b 44 24 0c          	mov    0xc(%esp),%eax
 8048d54:	65 33 05 14 00 00 00 	xor    %gs:0x14,%eax
 8048d5b:	75 16                	jne    8048d73 <phase_4+0x74>
 8048d5d:	83 c4 1c             	add    $0x1c,%esp
 8048d60:	c3                   	ret    
 8048d61:	83 7c 24 04 0e       	cmpl   $0xe,0x4(%esp)
 8048d66:	76 cb                	jbe    8048d33 <phase_4+0x34>
 8048d68:	eb c4                	jmp    8048d2e <phase_4+0x2f>
 8048d6a:	83 7c 24 08 0b       	cmpl   $0xb,0x8(%esp)
 8048d6f:	75 da                	jne    8048d4b <phase_4+0x4c>
 8048d71:	eb dd                	jmp    8048d50 <phase_4+0x51>
 8048d73:	e8 18 fa ff ff       	call   8048790 <__stack_chk_fail@plt>

08048d78 <phase_5>:
 8048d78:	53                   	push   %ebx
 8048d79:	83 ec 14             	sub    $0x14,%esp
 8048d7c:	8b 5c 24 1c          	mov    0x1c(%esp),%ebx
 8048d80:	53                   	push   %ebx
 8048d81:	e8 4c 02 00 00       	call   8048fd2 <string_length>
 8048d86:	83 c4 10             	add    $0x10,%esp
 8048d89:	83 f8 06             	cmp    $0x6,%eax
 8048d8c:	74 05                	je     8048d93 <phase_5+0x1b>
 8048d8e:	e8 53 03 00 00       	call   80490e6 <explode_bomb>
 8048d93:	89 d8                	mov    %ebx,%eax
 8048d95:	83 c3 06             	add    $0x6,%ebx
 8048d98:	b9 00 00 00 00       	mov    $0x0,%ecx
 8048d9d:	0f b6 10             	movzbl (%eax),%edx
 8048da0:	83 e2 0f             	and    $0xf,%edx
 8048da3:	03 0c 95 60 a0 04 08 	add    0x804a060(,%edx,4),%ecx
 8048daa:	83 c0 01             	add    $0x1,%eax
 8048dad:	39 d8                	cmp    %ebx,%eax
 8048daf:	75 ec                	jne    8048d9d <phase_5+0x25>
 8048db1:	83 f9 3e             	cmp    $0x3e,%ecx
 8048db4:	74 05                	je     8048dbb <phase_5+0x43>
 8048db6:	e8 2b 03 00 00       	call   80490e6 <explode_bomb>
 8048dbb:	83 c4 08             	add    $0x8,%esp
 8048dbe:	5b                   	pop    %ebx
 8048dbf:	c3                   	ret    

08048dc0 <phase_6>:
 8048dc0:	56                   	push   %esi
 8048dc1:	53                   	push   %ebx
 8048dc2:	83 ec 4c             	sub    $0x4c,%esp
 8048dc5:	65 a1 14 00 00 00    	mov    %gs:0x14,%eax
 8048dcb:	89 44 24 44          	mov    %eax,0x44(%esp)
 8048dcf:	31 c0                	xor    %eax,%eax
 8048dd1:	8d 44 24 14          	lea    0x14(%esp),%eax
 8048dd5:	50                   	push   %eax
 8048dd6:	ff 74 24 5c          	pushl  0x5c(%esp)
 8048dda:	e8 2c 03 00 00       	call   804910b <read_six_numbers>
 8048ddf:	83 c4 10             	add    $0x10,%esp
 8048de2:	be 00 00 00 00       	mov    $0x0,%esi
 8048de7:	eb 1c                	jmp    8048e05 <phase_6+0x45>
 8048de9:	83 c6 01             	add    $0x1,%esi
 8048dec:	83 fe 06             	cmp    $0x6,%esi
 8048def:	74 2e                	je     8048e1f <phase_6+0x5f>
 8048df1:	89 f3                	mov    %esi,%ebx
 8048df3:	8b 44 9c 0c          	mov    0xc(%esp,%ebx,4),%eax
 8048df7:	39 44 b4 08          	cmp    %eax,0x8(%esp,%esi,4)
 8048dfb:	74 1b                	je     8048e18 <phase_6+0x58>
 8048dfd:	83 c3 01             	add    $0x1,%ebx
 8048e00:	83 fb 05             	cmp    $0x5,%ebx
 8048e03:	7e ee                	jle    8048df3 <phase_6+0x33>
 8048e05:	8b 44 b4 0c          	mov    0xc(%esp,%esi,4),%eax
 8048e09:	83 e8 01             	sub    $0x1,%eax
 8048e0c:	83 f8 05             	cmp    $0x5,%eax
 8048e0f:	76 d8                	jbe    8048de9 <phase_6+0x29>
 8048e11:	e8 d0 02 00 00       	call   80490e6 <explode_bomb>
 8048e16:	eb d1                	jmp    8048de9 <phase_6+0x29>
 8048e18:	e8 c9 02 00 00       	call   80490e6 <explode_bomb>
 8048e1d:	eb de                	jmp    8048dfd <phase_6+0x3d>
 8048e1f:	bb 00 00 00 00       	mov    $0x0,%ebx
 8048e24:	89 de                	mov    %ebx,%esi
 8048e26:	8b 4c 9c 0c          	mov    0xc(%esp,%ebx,4),%ecx
 8048e2a:	b8 01 00 00 00       	mov    $0x1,%eax
 8048e2f:	ba 3c c1 04 08       	mov    $0x804c13c,%edx
 8048e34:	83 f9 01             	cmp    $0x1,%ecx
 8048e37:	7e 0a                	jle    8048e43 <phase_6+0x83>
 8048e39:	8b 52 08             	mov    0x8(%edx),%edx
 8048e3c:	83 c0 01             	add    $0x1,%eax
 8048e3f:	39 c8                	cmp    %ecx,%eax
 8048e41:	75 f6                	jne    8048e39 <phase_6+0x79>
 8048e43:	89 54 b4 24          	mov    %edx,0x24(%esp,%esi,4)
 8048e47:	83 c3 01             	add    $0x1,%ebx
 8048e4a:	83 fb 06             	cmp    $0x6,%ebx
 8048e4d:	75 d5                	jne    8048e24 <phase_6+0x64>
 8048e4f:	8b 5c 24 24          	mov    0x24(%esp),%ebx
 8048e53:	89 d9                	mov    %ebx,%ecx
 8048e55:	b8 01 00 00 00       	mov    $0x1,%eax
 8048e5a:	8b 54 84 24          	mov    0x24(%esp,%eax,4),%edx
 8048e5e:	89 51 08             	mov    %edx,0x8(%ecx)
 8048e61:	83 c0 01             	add    $0x1,%eax
 8048e64:	89 d1                	mov    %edx,%ecx
 8048e66:	83 f8 06             	cmp    $0x6,%eax
 8048e69:	75 ef                	jne    8048e5a <phase_6+0x9a>
 8048e6b:	c7 42 08 00 00 00 00 	movl   $0x0,0x8(%edx)
 8048e72:	be 05 00 00 00       	mov    $0x5,%esi
 8048e77:	eb 08                	jmp    8048e81 <phase_6+0xc1>
 8048e79:	8b 5b 08             	mov    0x8(%ebx),%ebx
 8048e7c:	83 ee 01             	sub    $0x1,%esi
 8048e7f:	74 10                	je     8048e91 <phase_6+0xd1>
 8048e81:	8b 43 08             	mov    0x8(%ebx),%eax
 8048e84:	8b 00                	mov    (%eax),%eax
 8048e86:	39 03                	cmp    %eax,(%ebx)
 8048e88:	7e ef                	jle    8048e79 <phase_6+0xb9>
 8048e8a:	e8 57 02 00 00       	call   80490e6 <explode_bomb>
 8048e8f:	eb e8                	jmp    8048e79 <phase_6+0xb9>
 8048e91:	8b 44 24 3c          	mov    0x3c(%esp),%eax
 8048e95:	65 33 05 14 00 00 00 	xor    %gs:0x14,%eax
 8048e9c:	75 06                	jne    8048ea4 <phase_6+0xe4>
 8048e9e:	83 c4 44             	add    $0x44,%esp
 8048ea1:	5b                   	pop    %ebx
 8048ea2:	5e                   	pop    %esi
 8048ea3:	c3                   	ret    
 8048ea4:	e8 e7 f8 ff ff       	call   8048790 <__stack_chk_fail@plt>

08048ea9 <fun7>:
 8048ea9:	53                   	push   %ebx
 8048eaa:	83 ec 08             	sub    $0x8,%esp
 8048ead:	8b 54 24 10          	mov    0x10(%esp),%edx
 8048eb1:	8b 4c 24 14          	mov    0x14(%esp),%ecx
 8048eb5:	85 d2                	test   %edx,%edx
 8048eb7:	74 3a                	je     8048ef3 <fun7+0x4a>
 8048eb9:	8b 1a                	mov    (%edx),%ebx
 8048ebb:	39 cb                	cmp    %ecx,%ebx
 8048ebd:	7f 21                	jg     8048ee0 <fun7+0x37>
 8048ebf:	b8 00 00 00 00       	mov    $0x0,%eax
 8048ec4:	39 cb                	cmp    %ecx,%ebx
 8048ec6:	74 13                	je     8048edb <fun7+0x32>
 8048ec8:	83 ec 08             	sub    $0x8,%esp
 8048ecb:	51                   	push   %ecx
 8048ecc:	ff 72 08             	pushl  0x8(%edx)
 8048ecf:	e8 d5 ff ff ff       	call   8048ea9 <fun7>
 8048ed4:	83 c4 10             	add    $0x10,%esp
 8048ed7:	8d 44 00 01          	lea    0x1(%eax,%eax,1),%eax
 8048edb:	83 c4 08             	add    $0x8,%esp
 8048ede:	5b                   	pop    %ebx
 8048edf:	c3                   	ret    
 8048ee0:	83 ec 08             	sub    $0x8,%esp
 8048ee3:	51                   	push   %ecx
 8048ee4:	ff 72 04             	pushl  0x4(%edx)
 8048ee7:	e8 bd ff ff ff       	call   8048ea9 <fun7>
 8048eec:	83 c4 10             	add    $0x10,%esp
 8048eef:	01 c0                	add    %eax,%eax
 8048ef1:	eb e8                	jmp    8048edb <fun7+0x32>
 8048ef3:	b8 ff ff ff ff       	mov    $0xffffffff,%eax
 8048ef8:	eb e1                	jmp    8048edb <fun7+0x32>

08048efa <secret_phase>:
8048efa:	53                   	push   %ebx
 8048efb:	83 ec 08             	sub    $0x8,%esp
 8048efe:	e8 43 02 00 00       	call   8049146 <read_line>
 8048f03:	83 ec 04             	sub    $0x4,%esp
 8048f06:	6a 0a                	push   $0xa
 8048f08:	6a 00                	push   $0x0
 8048f0a:	50                   	push   %eax
 8048f0b:	e8 70 f9 ff ff       	call   8048880 <strtol@plt>
 8048f10:	89 c3                	mov    %eax,%ebx
 8048f12:	8d 40 ff             	lea    -0x1(%eax),%eax
 8048f15:	83 c4 10             	add    $0x10,%esp
 8048f18:	3d e8 03 00 00       	cmp    $0x3e8,%eax
 8048f1d:	77 2c                	ja     8048f4b <secret_phase+0x51>
 8048f1f:	83 ec 08             	sub    $0x8,%esp
 8048f22:	53                   	push   %ebx
 8048f23:	68 88 c0 04 08       	push   $0x804c088
 8048f28:	e8 7c ff ff ff       	call   8048ea9 <fun7>
 8048f2d:	83 c4 10             	add    $0x10,%esp
 8048f30:	85 c0                	test   %eax,%eax
 8048f32:	75 1e                	jne    8048f52 <secret_phase+0x58>
 8048f34:	83 ec 0c             	sub    $0xc,%esp
 8048f37:	68 a0 a0 04 08       	push   $0x804a0a0
 8048f3c:	e8 7f f8 ff ff       	call   80487c0 <puts@plt>
 8048f41:	e8 ff 02 00 00       	call   8049245 <phase_defused>
 8048f46:	83 c4 18             	add    $0x18,%esp
 8048f49:	5b                   	pop    %ebx
 8048f4a:	c3                   	ret    
 8048f4b:	e8 96 01 00 00       	call   80490e6 <explode_bomb>
 8048f50:	eb cd                	jmp    8048f1f <secret_phase+0x25>
 8048f52:	e8 8f 01 00 00       	call   80490e6 <explode_bomb>
 8048f57:	eb db                	jmp    8048f34 <secret_phase+0x3a>

08048f59 <sig_handler>:
 8048f59:	83 ec 18             	sub    $0x18,%esp
 8048f5c:	68 c8 a0 04 08       	push   $0x804a0c8
 8048f61:	e8 5a f8 ff ff       	call   80487c0 <puts@plt>
 8048f66:	c7 04 24 03 00 00 00 	movl   $0x3,(%esp)
 8048f6d:	e8 fe f7 ff ff       	call   8048770 <sleep@plt>
 8048f72:	83 c4 08             	add    $0x8,%esp
 8048f75:	68 8a a1 04 08       	push   $0x804a18a
 8048f7a:	6a 01                	push   $0x1
 8048f7c:	e8 bf f8 ff ff       	call   8048840 <__printf_chk@plt>
 8048f81:	83 c4 04             	add    $0x4,%esp
 8048f84:	ff 35 c4 c3 04 08    	pushl  0x804c3c4
 8048f8a:	e8 b1 f7 ff ff       	call   8048740 <fflush@plt>
 8048f8f:	c7 04 24 01 00 00 00 	movl   $0x1,(%esp)
 8048f96:	e8 d5 f7 ff ff       	call   8048770 <sleep@plt>
 8048f9b:	c7 04 24 92 a1 04 08 	movl   $0x804a192,(%esp)
 8048fa2:	e8 19 f8 ff ff       	call   80487c0 <puts@plt>
 8048fa7:	c7 04 24 10 00 00 00 	movl   $0x10,(%esp)
 8048fae:	e8 2d f8 ff ff       	call   80487e0 <exit@plt>

08048fb3 <invalid_phase>:
 8048fb3:	83 ec 10             	sub    $0x10,%esp
 8048fb6:	ff 74 24 14          	pushl  0x14(%esp)
 8048fba:	68 9a a1 04 08       	push   $0x804a19a
 8048fbf:	6a 01                	push   $0x1
 8048fc1:	e8 7a f8 ff ff       	call   8048840 <__printf_chk@plt>
 8048fc6:	c7 04 24 08 00 00 00 	movl   $0x8,(%esp)
 8048fcd:	e8 0e f8 ff ff       	call   80487e0 <exit@plt>

08048fd2 <string_length>:
 8048fd2:	8b 54 24 04          	mov    0x4(%esp),%edx
 8048fd6:	80 3a 00             	cmpb   $0x0,(%edx)
 8048fd9:	74 10                	je     8048feb <string_length+0x19>
 8048fdb:	b8 00 00 00 00       	mov    $0x0,%eax
 8048fe0:	83 c0 01             	add    $0x1,%eax
 8048fe3:	80 3c 02 00          	cmpb   $0x0,(%edx,%eax,1)
 8048fe7:	75 f7                	jne    8048fe0 <string_length+0xe>
 8048fe9:	f3 c3                	repz ret 
 8048feb:	b8 00 00 00 00       	mov    $0x0,%eax
 8048ff0:	c3                   	ret    

08048ff1 <strings_not_equal>:
 8048ff1:	57                   	push   %edi
 8048ff2:	56                   	push   %esi
 8048ff3:	53                   	push   %ebx
 8048ff4:	8b 5c 24 10          	mov    0x10(%esp),%ebx
 8048ff8:	8b 74 24 14          	mov    0x14(%esp),%esi
 8048ffc:	53                   	push   %ebx
 8048ffd:	e8 d0 ff ff ff       	call   8048fd2 <string_length>
 8049002:	89 c7                	mov    %eax,%edi
 8049004:	89 34 24             	mov    %esi,(%esp)
 8049007:	e8 c6 ff ff ff       	call   8048fd2 <string_length>
 804900c:	83 c4 04             	add    $0x4,%esp
 804900f:	ba 01 00 00 00       	mov    $0x1,%edx
 8049014:	39 c7                	cmp    %eax,%edi
 8049016:	74 06                	je     804901e <strings_not_equal+0x2d>
 8049018:	89 d0                	mov    %edx,%eax
 804901a:	5b                   	pop    %ebx
 804901b:	5e                   	pop    %esi
 804901c:	5f                   	pop    %edi
 804901d:	c3                   	ret    
 804901e:	0f b6 03             	movzbl (%ebx),%eax
 8049021:	84 c0                	test   %al,%al
 8049023:	74 23                	je     8049048 <strings_not_equal+0x57>
 8049025:	3a 06                	cmp    (%esi),%al
 8049027:	75 26                	jne    804904f <strings_not_equal+0x5e>
 8049029:	83 c3 01             	add    $0x1,%ebx
 804902c:	83 c6 01             	add    $0x1,%esi
 804902f:	0f b6 03             	movzbl (%ebx),%eax
 8049032:	84 c0                	test   %al,%al
 8049034:	74 0b                	je     8049041 <strings_not_equal+0x50>
 8049036:	3a 06                	cmp    (%esi),%al
 8049038:	74 ef                	je     8049029 <strings_not_equal+0x38>
 804903a:	ba 01 00 00 00       	mov    $0x1,%edx
 804903f:	eb d7                	jmp    8049018 <strings_not_equal+0x27>
 8049041:	ba 00 00 00 00       	mov    $0x0,%edx
 8049046:	eb d0                	jmp    8049018 <strings_not_equal+0x27>
 8049048:	ba 00 00 00 00       	mov    $0x0,%edx
 804904d:	eb c9                	jmp    8049018 <strings_not_equal+0x27>
 804904f:	ba 01 00 00 00       	mov    $0x1,%edx
 8049054:	eb c2                	jmp    8049018 <strings_not_equal+0x27>

08049056 <initialize_bomb>:
 8049056:	83 ec 14             	sub    $0x14,%esp
 8049059:	68 59 8f 04 08       	push   $0x8048f59
 804905e:	6a 02                	push   $0x2
 8049060:	e8 fb f6 ff ff       	call   8048760 <signal@plt>
 8049065:	83 c4 1c             	add    $0x1c,%esp
 8049068:	c3                   	ret    

08049069 <initialize_bomb_solve>:
 8049069:	f3 c3                	repz ret 

0804906b <blank_line>:
 804906b:	56                   	push   %esi
 804906c:	53                   	push   %ebx
 804906d:	83 ec 04             	sub    $0x4,%esp
 8049070:	8b 74 24 10          	mov    0x10(%esp),%esi
 8049074:	0f b6 1e             	movzbl (%esi),%ebx
 8049077:	84 db                	test   %bl,%bl
 8049079:	74 1b                	je     8049096 <blank_line+0x2b>
 804907b:	e8 30 f8 ff ff       	call   80488b0 <__ctype_b_loc@plt>
 8049080:	83 c6 01             	add    $0x1,%esi
 8049083:	0f be db             	movsbl %bl,%ebx
 8049086:	8b 00                	mov    (%eax),%eax
 8049088:	f6 44 58 01 20       	testb  $0x20,0x1(%eax,%ebx,2)
 804908d:	75 e5                	jne    8049074 <blank_line+0x9>
 804908f:	b8 00 00 00 00       	mov    $0x0,%eax
 8049094:	eb 05                	jmp    804909b <blank_line+0x30>
 8049096:	b8 01 00 00 00       	mov    $0x1,%eax
 804909b:	83 c4 04             	add    $0x4,%esp
 804909e:	5b                   	pop    %ebx
 804909f:	5e                   	pop    %esi
 80490a0:	c3                   	ret    

080490a1 <skip>:
 80490a1:	53                   	push   %ebx
 80490a2:	83 ec 08             	sub    $0x8,%esp
 80490a5:	83 ec 04             	sub    $0x4,%esp
 80490a8:	ff 35 d0 c3 04 08    	pushl  0x804c3d0
 80490ae:	6a 50                	push   $0x50
 80490b0:	a1 cc c3 04 08       	mov    0x804c3cc,%eax
 80490b5:	8d 04 80             	lea    (%eax,%eax,4),%eax
 80490b8:	c1 e0 04             	shl    $0x4,%eax
 80490bb:	05 e0 c3 04 08       	add    $0x804c3e0,%eax
 80490c0:	50                   	push   %eax
 80490c1:	e8 8a f6 ff ff       	call   8048750 <fgets@plt>
 80490c6:	89 c3                	mov    %eax,%ebx
 80490c8:	83 c4 10             	add    $0x10,%esp
 80490cb:	85 c0                	test   %eax,%eax
 80490cd:	74 10                	je     80490df <skip+0x3e>
 80490cf:	83 ec 0c             	sub    $0xc,%esp
 80490d2:	50                   	push   %eax
 80490d3:	e8 93 ff ff ff       	call   804906b <blank_line>
 80490d8:	83 c4 10             	add    $0x10,%esp
 80490db:	85 c0                	test   %eax,%eax
 80490dd:	75 c6                	jne    80490a5 <skip+0x4>
 80490df:	89 d8                	mov    %ebx,%eax
 80490e1:	83 c4 08             	add    $0x8,%esp
 80490e4:	5b                   	pop    %ebx
 80490e5:	c3                   	ret    

080490e6 <explode_bomb>:
 80490e6:	83 ec 18             	sub    $0x18,%esp
 80490e9:	68 ab a1 04 08       	push   $0x804a1ab
 80490ee:	e8 cd f6 ff ff       	call   80487c0 <puts@plt>
 80490f3:	c7 04 24 b4 a1 04 08 	movl   $0x804a1b4,(%esp)
 80490fa:	e8 c1 f6 ff ff       	call   80487c0 <puts@plt>
 80490ff:	c7 04 24 08 00 00 00 	movl   $0x8,(%esp)
 8049106:	e8 d5 f6 ff ff       	call   80487e0 <exit@plt>

0804910b <read_six_numbers>:
 804910b:	83 ec 0c             	sub    $0xc,%esp
 804910e:	8b 44 24 14          	mov    0x14(%esp),%eax
 8049112:	8d 50 14             	lea    0x14(%eax),%edx
 8049115:	52                   	push   %edx
 8049116:	8d 50 10             	lea    0x10(%eax),%edx
 8049119:	52                   	push   %edx
 804911a:	8d 50 0c             	lea    0xc(%eax),%edx
 804911d:	52                   	push   %edx
 804911e:	8d 50 08             	lea    0x8(%eax),%edx
 8049121:	52                   	push   %edx
 8049122:	8d 50 04             	lea    0x4(%eax),%edx
 8049125:	52                   	push   %edx
 8049126:	50                   	push   %eax
 8049127:	68 cb a1 04 08       	push   $0x804a1cb
 804912c:	ff 74 24 2c          	pushl  0x2c(%esp)
 8049130:	e8 db f6 ff ff       	call   8048810 <__isoc99_sscanf@plt>
 8049135:	83 c4 20             	add    $0x20,%esp
 8049138:	83 f8 05             	cmp    $0x5,%eax
 804913b:	7e 04                	jle    8049141 <read_six_numbers+0x36>
 804913d:	83 c4 0c             	add    $0xc,%esp
 8049140:	c3                   	ret    
 8049141:	e8 a0 ff ff ff       	call   80490e6 <explode_bomb>

08049146 <read_line>:
 8049146:	57                   	push   %edi
 8049147:	56                   	push   %esi
 8049148:	53                   	push   %ebx
 8049149:	e8 53 ff ff ff       	call   80490a1 <skip>
 804914e:	85 c0                	test   %eax,%eax
 8049150:	74 4b                	je     804919d <read_line+0x57>
 8049152:	8b 15 cc c3 04 08    	mov    0x804c3cc,%edx
 8049158:	8d 1c 92             	lea    (%edx,%edx,4),%ebx
 804915b:	c1 e3 04             	shl    $0x4,%ebx
 804915e:	81 c3 e0 c3 04 08    	add    $0x804c3e0,%ebx
 8049164:	b8 00 00 00 00       	mov    $0x0,%eax
 8049169:	b9 ff ff ff ff       	mov    $0xffffffff,%ecx
 804916e:	89 df                	mov    %ebx,%edi
 8049170:	f2 ae                	repnz scas %es:(%edi),%al
 8049172:	f7 d1                	not    %ecx
 8049174:	83 e9 01             	sub    $0x1,%ecx
 8049177:	83 f9 4e             	cmp    $0x4e,%ecx
 804917a:	0f 8f 8d 00 00 00    	jg     804920d <read_line+0xc7>
 8049180:	8d 04 92             	lea    (%edx,%edx,4),%eax
 8049183:	c1 e0 04             	shl    $0x4,%eax
 8049186:	c6 84 01 df c3 04 08 	movb   $0x0,0x804c3df(%ecx,%eax,1)
 804918d:	00 
 804918e:	83 c2 01             	add    $0x1,%edx
 8049191:	89 15 cc c3 04 08    	mov    %edx,0x804c3cc
 8049197:	89 d8                	mov    %ebx,%eax
 8049199:	5b                   	pop    %ebx
 804919a:	5e                   	pop    %esi
 804919b:	5f                   	pop    %edi
 804919c:	c3                   	ret    
 804919d:	a1 c0 c3 04 08       	mov    0x804c3c0,%eax
 80491a2:	39 05 d0 c3 04 08    	cmp    %eax,0x804c3d0
 80491a8:	74 40                	je     80491ea <read_line+0xa4>
 80491aa:	83 ec 0c             	sub    $0xc,%esp
 80491ad:	68 fb a1 04 08       	push   $0x804a1fb
 80491b2:	e8 f9 f5 ff ff       	call   80487b0 <getenv@plt>
 80491b7:	83 c4 10             	add    $0x10,%esp
 80491ba:	85 c0                	test   %eax,%eax
 80491bc:	75 45                	jne    8049203 <read_line+0xbd>
 80491be:	a1 c0 c3 04 08       	mov    0x804c3c0,%eax
 80491c3:	a3 d0 c3 04 08       	mov    %eax,0x804c3d0
 80491c8:	e8 d4 fe ff ff       	call   80490a1 <skip>
 80491cd:	85 c0                	test   %eax,%eax
 80491cf:	75 81                	jne    8049152 <read_line+0xc>
 80491d1:	83 ec 0c             	sub    $0xc,%esp
 80491d4:	68 dd a1 04 08       	push   $0x804a1dd
 80491d9:	e8 e2 f5 ff ff       	call   80487c0 <puts@plt>
 80491de:	c7 04 24 00 00 00 00 	movl   $0x0,(%esp)
 80491e5:	e8 f6 f5 ff ff       	call   80487e0 <exit@plt>
 80491ea:	83 ec 0c             	sub    $0xc,%esp
 80491ed:	68 dd a1 04 08       	push   $0x804a1dd
 80491f2:	e8 c9 f5 ff ff       	call   80487c0 <puts@plt>
 80491f7:	c7 04 24 08 00 00 00 	movl   $0x8,(%esp)
 80491fe:	e8 dd f5 ff ff       	call   80487e0 <exit@plt>
 8049203:	83 ec 0c             	sub    $0xc,%esp
 8049206:	6a 00                	push   $0x0
 8049208:	e8 d3 f5 ff ff       	call   80487e0 <exit@plt>
 804920d:	83 ec 0c             	sub    $0xc,%esp
 8049210:	68 06 a2 04 08       	push   $0x804a206
 8049215:	e8 a6 f5 ff ff       	call   80487c0 <puts@plt>
 804921a:	a1 cc c3 04 08       	mov    0x804c3cc,%eax
 804921f:	8d 50 01             	lea    0x1(%eax),%edx
 8049222:	89 15 cc c3 04 08    	mov    %edx,0x804c3cc
 8049228:	6b c0 50             	imul   $0x50,%eax,%eax
 804922b:	05 e0 c3 04 08       	add    $0x804c3e0,%eax
 8049230:	ba 21 a2 04 08       	mov    $0x804a221,%edx
 8049235:	b9 04 00 00 00       	mov    $0x4,%ecx
 804923a:	89 c7                	mov    %eax,%edi
 804923c:	89 d6                	mov    %edx,%esi
 804923e:	f3 a5                	rep movsl %ds:(%esi),%es:(%edi)
 8049240:	e8 a1 fe ff ff       	call   80490e6 <explode_bomb>

08049245 <phase_defused>:
 8049245:	83 ec 6c             	sub    $0x6c,%esp
 8049248:	65 a1 14 00 00 00    	mov    %gs:0x14,%eax
 804924e:	89 44 24 5c          	mov    %eax,0x5c(%esp)
 8049252:	31 c0                	xor    %eax,%eax
 8049254:	83 3d cc c3 04 08 06 	cmpl   $0x6,0x804c3cc
 804925b:	74 11                	je     804926e <phase_defused+0x29>
 804925d:	8b 44 24 5c          	mov    0x5c(%esp),%eax
 8049261:	65 33 05 14 00 00 00 	xor    %gs:0x14,%eax
 8049268:	75 7b                	jne    80492e5 <phase_defused+0xa0>
 804926a:	83 c4 6c             	add    $0x6c,%esp
 804926d:	c3                   	ret    
 804926e:	83 ec 0c             	sub    $0xc,%esp
 8049271:	8d 44 24 18          	lea    0x18(%esp),%eax
 8049275:	50                   	push   %eax
 8049276:	8d 44 24 18          	lea    0x18(%esp),%eax
 804927a:	50                   	push   %eax
 804927b:	8d 44 24 18          	lea    0x18(%esp),%eax
 804927f:	50                   	push   %eax
 8049280:	68 31 a2 04 08       	push   $0x804a231
 8049285:	68 d0 c4 04 08       	push   $0x804c4d0
 804928a:	e8 81 f5 ff ff       	call   8048810 <__isoc99_sscanf@plt>
 804928f:	83 c4 20             	add    $0x20,%esp
 8049292:	83 f8 03             	cmp    $0x3,%eax
 8049295:	74 12                	je     80492a9 <phase_defused+0x64>
 8049297:	83 ec 0c             	sub    $0xc,%esp
 804929a:	68 60 a1 04 08       	push   $0x804a160
 804929f:	e8 1c f5 ff ff       	call   80487c0 <puts@plt>
 80492a4:	83 c4 10             	add    $0x10,%esp
 80492a7:	eb b4                	jmp    804925d <phase_defused+0x18>
 80492a9:	83 ec 08             	sub    $0x8,%esp
 80492ac:	68 3a a2 04 08       	push   $0x804a23a
 80492b1:	8d 44 24 18          	lea    0x18(%esp),%eax
 80492b5:	50                   	push   %eax
 80492b6:	e8 36 fd ff ff       	call   8048ff1 <strings_not_equal>
 80492bb:	83 c4 10             	add    $0x10,%esp
 80492be:	85 c0                	test   %eax,%eax
 80492c0:	75 d5                	jne    8049297 <phase_defused+0x52>
 80492c2:	83 ec 0c             	sub    $0xc,%esp
 80492c5:	68 00 a1 04 08       	push   $0x804a100
 80492ca:	e8 f1 f4 ff ff       	call   80487c0 <puts@plt>
 80492cf:	c7 04 24 28 a1 04 08 	movl   $0x804a128,(%esp)
 80492d6:	e8 e5 f4 ff ff       	call   80487c0 <puts@plt>
 80492db:	e8 1a fc ff ff       	call   8048efa <secret_phase>
 80492e0:	83 c4 10             	add    $0x10,%esp
 80492e3:	eb b2                	jmp    8049297 <phase_defused+0x52>
 80492e5:	e8 a6 f4 ff ff       	call   8048790 <__stack_chk_fail@plt>

080492ea <sigalrm_handler>:
 80492ea:	83 ec 0c             	sub    $0xc,%esp
 80492ed:	6a 00                	push   $0x0
 80492ef:	68 90 a2 04 08       	push   $0x804a290
 80492f4:	6a 01                	push   $0x1
 80492f6:	ff 35 a0 c3 04 08    	pushl  0x804c3a0
 80492fc:	e8 5f f5 ff ff       	call   8048860 <__fprintf_chk@plt>
 8049301:	c7 04 24 01 00 00 00 	movl   $0x1,(%esp)
 8049308:	e8 d3 f4 ff ff       	call   80487e0 <exit@plt>

0804930d <rio_readlineb>:
 804930d:	55                   	push   %ebp
 804930e:	57                   	push   %edi
 804930f:	56                   	push   %esi
 8049310:	53                   	push   %ebx
 8049311:	83 ec 1c             	sub    $0x1c,%esp
 8049314:	83 f9 01             	cmp    $0x1,%ecx
 8049317:	76 79                	jbe    8049392 <rio_readlineb+0x85>
 8049319:	89 d7                	mov    %edx,%edi
 804931b:	89 c3                	mov    %eax,%ebx
 804931d:	89 4c 24 0c          	mov    %ecx,0xc(%esp)
 8049321:	bd 01 00 00 00       	mov    $0x1,%ebp
 8049326:	8d 70 0c             	lea    0xc(%eax),%esi
 8049329:	eb 0a                	jmp    8049335 <rio_readlineb+0x28>
 804932b:	e8 00 f5 ff ff       	call   8048830 <__errno_location@plt>
 8049330:	83 38 04             	cmpl   $0x4,(%eax)
 8049333:	75 66                	jne    804939b <rio_readlineb+0x8e>
 8049335:	8b 43 04             	mov    0x4(%ebx),%eax
 8049338:	85 c0                	test   %eax,%eax
 804933a:	7f 23                	jg     804935f <rio_readlineb+0x52>
 804933c:	83 ec 04             	sub    $0x4,%esp
 804933f:	68 00 20 00 00       	push   $0x2000
 8049344:	56                   	push   %esi
 8049345:	ff 33                	pushl  (%ebx)
 8049347:	e8 e4 f3 ff ff       	call   8048730 <read@plt>
 804934c:	89 43 04             	mov    %eax,0x4(%ebx)
 804934f:	83 c4 10             	add    $0x10,%esp
 8049352:	85 c0                	test   %eax,%eax
 8049354:	78 d5                	js     804932b <rio_readlineb+0x1e>
 8049356:	85 c0                	test   %eax,%eax
 8049358:	74 48                	je     80493a2 <rio_readlineb+0x95>
 804935a:	89 73 08             	mov    %esi,0x8(%ebx)
 804935d:	eb d6                	jmp    8049335 <rio_readlineb+0x28>
 804935f:	8b 4b 08             	mov    0x8(%ebx),%ecx
 8049362:	0f b6 11             	movzbl (%ecx),%edx
 8049365:	83 c1 01             	add    $0x1,%ecx
 8049368:	89 4b 08             	mov    %ecx,0x8(%ebx)
 804936b:	83 e8 01             	sub    $0x1,%eax
 804936e:	89 43 04             	mov    %eax,0x4(%ebx)
 8049371:	83 c7 01             	add    $0x1,%edi
 8049374:	88 57 ff             	mov    %dl,-0x1(%edi)
 8049377:	80 fa 0a             	cmp    $0xa,%dl
 804937a:	74 09                	je     8049385 <rio_readlineb+0x78>
 804937c:	83 c5 01             	add    $0x1,%ebp
 804937f:	3b 6c 24 0c          	cmp    0xc(%esp),%ebp
 8049383:	75 b0                	jne    8049335 <rio_readlineb+0x28>
 8049385:	c6 07 00             	movb   $0x0,(%edi)
 8049388:	89 e8                	mov    %ebp,%eax
 804938a:	83 c4 1c             	add    $0x1c,%esp
 804938d:	5b                   	pop    %ebx
 804938e:	5e                   	pop    %esi
 804938f:	5f                   	pop    %edi
 8049390:	5d                   	pop    %ebp
 8049391:	c3                   	ret    
 8049392:	89 d7                	mov    %edx,%edi
 8049394:	bd 01 00 00 00       	mov    $0x1,%ebp
 8049399:	eb ea                	jmp    8049385 <rio_readlineb+0x78>
 804939b:	b8 ff ff ff ff       	mov    $0xffffffff,%eax
 80493a0:	eb 05                	jmp    80493a7 <rio_readlineb+0x9a>
 80493a2:	b8 00 00 00 00       	mov    $0x0,%eax
 80493a7:	85 c0                	test   %eax,%eax
 80493a9:	75 0c                	jne    80493b7 <rio_readlineb+0xaa>
 80493ab:	83 fd 01             	cmp    $0x1,%ebp
 80493ae:	75 d5                	jne    8049385 <rio_readlineb+0x78>
 80493b0:	bd 00 00 00 00       	mov    $0x0,%ebp
 80493b5:	eb d1                	jmp    8049388 <rio_readlineb+0x7b>
 80493b7:	bd ff ff ff ff       	mov    $0xffffffff,%ebp
 80493bc:	eb ca                	jmp    8049388 <rio_readlineb+0x7b>

080493be <submitr>:
 80493be:	55                   	push   %ebp
 80493bf:	57                   	push   %edi
 80493c0:	56                   	push   %esi
 80493c1:	53                   	push   %ebx
 80493c2:	81 ec 60 a0 00 00    	sub    $0xa060,%esp
 80493c8:	8b 9c 24 74 a0 00 00 	mov    0xa074(%esp),%ebx
 80493cf:	8b 84 24 7c a0 00 00 	mov    0xa07c(%esp),%eax
 80493d6:	89 44 24 0c          	mov    %eax,0xc(%esp)
 80493da:	8b 84 24 80 a0 00 00 	mov    0xa080(%esp),%eax
 80493e1:	89 44 24 10          	mov    %eax,0x10(%esp)
 80493e5:	8b 84 24 84 a0 00 00 	mov    0xa084(%esp),%eax
 80493ec:	89 44 24 14          	mov    %eax,0x14(%esp)
 80493f0:	8b b4 24 88 a0 00 00 	mov    0xa088(%esp),%esi
 80493f7:	8b 84 24 8c a0 00 00 	mov    0xa08c(%esp),%eax
 80493fe:	89 44 24 18          	mov    %eax,0x18(%esp)
 8049402:	65 a1 14 00 00 00    	mov    %gs:0x14,%eax
 8049408:	89 84 24 50 a0 00 00 	mov    %eax,0xa050(%esp)
 804940f:	31 c0                	xor    %eax,%eax
 8049411:	c7 44 24 30 00 00 00 	movl   $0x0,0x30(%esp)
 8049418:	00 
 8049419:	6a 00                	push   $0x0
 804941b:	6a 01                	push   $0x1
 804941d:	6a 02                	push   $0x2
 804941f:	e8 2c f4 ff ff       	call   8048850 <socket@plt>
 8049424:	83 c4 10             	add    $0x10,%esp
 8049427:	85 c0                	test   %eax,%eax
 8049429:	0f 88 04 01 00 00    	js     8049533 <submitr+0x175>
 804942f:	89 c5                	mov    %eax,%ebp
 8049431:	83 ec 0c             	sub    $0xc,%esp
 8049434:	53                   	push   %ebx
 8049435:	e8 36 f4 ff ff       	call   8048870 <gethostbyname@plt>
 804943a:	83 c4 10             	add    $0x10,%esp
 804943d:	85 c0                	test   %eax,%eax
 804943f:	0f 84 40 01 00 00    	je     8049585 <submitr+0x1c7>
 8049445:	8d 5c 24 30          	lea    0x30(%esp),%ebx
 8049449:	c7 44 24 30 00 00 00 	movl   $0x0,0x30(%esp)
 8049450:	00 
 8049451:	c7 44 24 34 00 00 00 	movl   $0x0,0x34(%esp)
 8049458:	00 
 8049459:	c7 44 24 38 00 00 00 	movl   $0x0,0x38(%esp)
 8049460:	00 
 8049461:	c7 44 24 3c 00 00 00 	movl   $0x0,0x3c(%esp)
 8049468:	00 
 8049469:	66 c7 44 24 30 02 00 	movw   $0x2,0x30(%esp)
 8049470:	6a 0c                	push   $0xc
 8049472:	ff 70 0c             	pushl  0xc(%eax)
 8049475:	8b 40 10             	mov    0x10(%eax),%eax
 8049478:	ff 30                	pushl  (%eax)
 804947a:	8d 44 24 40          	lea    0x40(%esp),%eax
 804947e:	50                   	push   %eax
 804947f:	e8 4c f3 ff ff       	call   80487d0 <__memmove_chk@plt>
 8049484:	0f b7 84 24 84 a0 00 	movzwl 0xa084(%esp),%eax
 804948b:	00 
 804948c:	66 c1 c8 08          	ror    $0x8,%ax
 8049490:	66 89 44 24 42       	mov    %ax,0x42(%esp)
 8049495:	83 c4 0c             	add    $0xc,%esp
 8049498:	6a 10                	push   $0x10
 804949a:	53                   	push   %ebx
 804949b:	55                   	push   %ebp
 804949c:	e8 ef f3 ff ff       	call   8048890 <connect@plt>
 80494a1:	83 c4 10             	add    $0x10,%esp
 80494a4:	85 c0                	test   %eax,%eax
 80494a6:	0f 88 49 01 00 00    	js     80495f5 <submitr+0x237>
 80494ac:	ba ff ff ff ff       	mov    $0xffffffff,%edx
 80494b1:	b8 00 00 00 00       	mov    $0x0,%eax
 80494b6:	89 d1                	mov    %edx,%ecx
 80494b8:	89 f7                	mov    %esi,%edi
 80494ba:	f2 ae                	repnz scas %es:(%edi),%al
 80494bc:	89 cb                	mov    %ecx,%ebx
 80494be:	f7 d3                	not    %ebx
 80494c0:	89 d1                	mov    %edx,%ecx
 80494c2:	8b 7c 24 08          	mov    0x8(%esp),%edi
 80494c6:	f2 ae                	repnz scas %es:(%edi),%al
 80494c8:	89 4c 24 18          	mov    %ecx,0x18(%esp)
 80494cc:	89 d1                	mov    %edx,%ecx
 80494ce:	8b 7c 24 0c          	mov    0xc(%esp),%edi
 80494d2:	f2 ae                	repnz scas %es:(%edi),%al
 80494d4:	89 cf                	mov    %ecx,%edi
 80494d6:	f7 d7                	not    %edi
 80494d8:	89 7c 24 1c          	mov    %edi,0x1c(%esp)
 80494dc:	89 d1                	mov    %edx,%ecx
 80494de:	8b 7c 24 10          	mov    0x10(%esp),%edi
 80494e2:	f2 ae                	repnz scas %es:(%edi),%al
 80494e4:	8b 54 24 1c          	mov    0x1c(%esp),%edx
 80494e8:	2b 54 24 18          	sub    0x18(%esp),%edx
 80494ec:	29 ca                	sub    %ecx,%edx
 80494ee:	8d 44 5b fd          	lea    -0x3(%ebx,%ebx,2),%eax
 80494f2:	8d 44 02 7b          	lea    0x7b(%edx,%eax,1),%eax
 80494f6:	3d 00 20 00 00       	cmp    $0x2000,%eax
 80494fb:	0f 87 56 01 00 00    	ja     8049657 <submitr+0x299>
 8049501:	8d 94 24 4c 40 00 00 	lea    0x404c(%esp),%edx
 8049508:	b9 00 08 00 00       	mov    $0x800,%ecx
 804950d:	b8 00 00 00 00       	mov    $0x0,%eax
 8049512:	89 d7                	mov    %edx,%edi
 8049514:	f3 ab                	rep stos %eax,%es:(%edi)
 8049516:	b9 ff ff ff ff       	mov    $0xffffffff,%ecx
 804951b:	89 f7                	mov    %esi,%edi
 804951d:	f2 ae                	repnz scas %es:(%edi),%al
 804951f:	f7 d1                	not    %ecx
 8049521:	89 cb                	mov    %ecx,%ebx
 8049523:	83 eb 01             	sub    $0x1,%ebx
 8049526:	0f 84 07 06 00 00    	je     8049b33 <submitr+0x775>
 804952c:	89 d7                	mov    %edx,%edi
 804952e:	e9 b0 01 00 00       	jmp    80496e3 <submitr+0x325>
 8049533:	8b 44 24 14          	mov    0x14(%esp),%eax
 8049537:	c7 00 45 72 72 6f    	movl   $0x6f727245,(%eax)
 804953d:	c7 40 04 72 3a 20 43 	movl   $0x43203a72,0x4(%eax)
 8049544:	c7 40 08 6c 69 65 6e 	movl   $0x6e65696c,0x8(%eax)
 804954b:	c7 40 0c 74 20 75 6e 	movl   $0x6e752074,0xc(%eax)
 8049552:	c7 40 10 61 62 6c 65 	movl   $0x656c6261,0x10(%eax)
 8049559:	c7 40 14 20 74 6f 20 	movl   $0x206f7420,0x14(%eax)
 8049560:	c7 40 18 63 72 65 61 	movl   $0x61657263,0x18(%eax)
 8049567:	c7 40 1c 74 65 20 73 	movl   $0x73206574,0x1c(%eax)
 804956e:	c7 40 20 6f 63 6b 65 	movl   $0x656b636f,0x20(%eax)
 8049575:	66 c7 40 24 74 00    	movw   $0x74,0x24(%eax)
 804957b:	b8 ff ff ff ff       	mov    $0xffffffff,%eax
 8049580:	e9 d0 04 00 00       	jmp    8049a55 <submitr+0x697>
 8049585:	8b 44 24 14          	mov    0x14(%esp),%eax
 8049589:	c7 00 45 72 72 6f    	movl   $0x6f727245,(%eax)
 804958f:	c7 40 04 72 3a 20 44 	movl   $0x44203a72,0x4(%eax)
 8049596:	c7 40 08 4e 53 20 69 	movl   $0x6920534e,0x8(%eax)
 804959d:	c7 40 0c 73 20 75 6e 	movl   $0x6e752073,0xc(%eax)
 80495a4:	c7 40 10 61 62 6c 65 	movl   $0x656c6261,0x10(%eax)
 80495ab:	c7 40 14 20 74 6f 20 	movl   $0x206f7420,0x14(%eax)
 80495b2:	c7 40 18 72 65 73 6f 	movl   $0x6f736572,0x18(%eax)
 80495b9:	c7 40 1c 6c 76 65 20 	movl   $0x2065766c,0x1c(%eax)
 80495c0:	c7 40 20 73 65 72 76 	movl   $0x76726573,0x20(%eax)
 80495c7:	c7 40 24 65 72 20 61 	movl   $0x61207265,0x24(%eax)
 80495ce:	c7 40 28 64 64 72 65 	movl   $0x65726464,0x28(%eax)
 80495d5:	66 c7 40 2c 73 73    	movw   $0x7373,0x2c(%eax)
 80495db:	c6 40 2e 00          	movb   $0x0,0x2e(%eax)
 80495df:	83 ec 0c             	sub    $0xc,%esp
 80495e2:	55                   	push   %ebp
 80495e3:	e8 b8 f2 ff ff       	call   80488a0 <close@plt>
 80495e8:	83 c4 10             	add    $0x10,%esp
 80495eb:	b8 ff ff ff ff       	mov    $0xffffffff,%eax
 80495f0:	e9 60 04 00 00       	jmp    8049a55 <submitr+0x697>
 80495f5:	8b 44 24 14          	mov    0x14(%esp),%eax
 80495f9:	c7 00 45 72 72 6f    	movl   $0x6f727245,(%eax)
 80495ff:	c7 40 04 72 3a 20 55 	movl   $0x55203a72,0x4(%eax)
 8049606:	c7 40 08 6e 61 62 6c 	movl   $0x6c62616e,0x8(%eax)
 804960d:	c7 40 0c 65 20 74 6f 	movl   $0x6f742065,0xc(%eax)
 8049614:	c7 40 10 20 63 6f 6e 	movl   $0x6e6f6320,0x10(%eax)
 804961b:	c7 40 14 6e 65 63 74 	movl   $0x7463656e,0x14(%eax)
 8049622:	c7 40 18 20 74 6f 20 	movl   $0x206f7420,0x18(%eax)
 8049629:	c7 40 1c 74 68 65 20 	movl   $0x20656874,0x1c(%eax)
 8049630:	c7 40 20 73 65 72 76 	movl   $0x76726573,0x20(%eax)
 8049637:	66 c7 40 24 65 72    	movw   $0x7265,0x24(%eax)
 804963d:	c6 40 26 00          	movb   $0x0,0x26(%eax)
 8049641:	83 ec 0c             	sub    $0xc,%esp
 8049644:	55                   	push   %ebp
 8049645:	e8 56 f2 ff ff       	call   80488a0 <close@plt>
 804964a:	83 c4 10             	add    $0x10,%esp
 804964d:	b8 ff ff ff ff       	mov    $0xffffffff,%eax
 8049652:	e9 fe 03 00 00       	jmp    8049a55 <submitr+0x697>
 8049657:	8b 44 24 14          	mov    0x14(%esp),%eax
 804965b:	c7 00 45 72 72 6f    	movl   $0x6f727245,(%eax)
 8049661:	c7 40 04 72 3a 20 52 	movl   $0x52203a72,0x4(%eax)
 8049668:	c7 40 08 65 73 75 6c 	movl   $0x6c757365,0x8(%eax)
 804966f:	c7 40 0c 74 20 73 74 	movl   $0x74732074,0xc(%eax)
 8049676:	c7 40 10 72 69 6e 67 	movl   $0x676e6972,0x10(%eax)
 804967d:	c7 40 14 20 74 6f 6f 	movl   $0x6f6f7420,0x14(%eax)
 8049684:	c7 40 18 20 6c 61 72 	movl   $0x72616c20,0x18(%eax)
 804968b:	c7 40 1c 67 65 2e 20 	movl   $0x202e6567,0x1c(%eax)
 8049692:	c7 40 20 49 6e 63 72 	movl   $0x72636e49,0x20(%eax)
 8049699:	c7 40 24 65 61 73 65 	movl   $0x65736165,0x24(%eax)
 80496a0:	c7 40 28 20 53 55 42 	movl   $0x42555320,0x28(%eax)
 80496a7:	c7 40 2c 4d 49 54 52 	movl   $0x5254494d,0x2c(%eax)
 80496ae:	c7 40 30 5f 4d 41 58 	movl   $0x58414d5f,0x30(%eax)
 80496b5:	c7 40 34 42 55 46 00 	movl   $0x465542,0x34(%eax)
 80496bc:	83 ec 0c             	sub    $0xc,%esp
 80496bf:	55                   	push   %ebp
 80496c0:	e8 db f1 ff ff       	call   80488a0 <close@plt>
 80496c5:	83 c4 10             	add    $0x10,%esp
 80496c8:	b8 ff ff ff ff       	mov    $0xffffffff,%eax
 80496cd:	e9 83 03 00 00       	jmp    8049a55 <submitr+0x697>
 80496d2:	88 17                	mov    %dl,(%edi)
 80496d4:	8d 7f 01             	lea    0x1(%edi),%edi
 80496d7:	83 c6 01             	add    $0x1,%esi
 80496da:	83 eb 01             	sub    $0x1,%ebx
 80496dd:	0f 84 50 04 00 00    	je     8049b33 <submitr+0x775>
 80496e3:	0f b6 16             	movzbl (%esi),%edx
 80496e6:	8d 4a d6             	lea    -0x2a(%edx),%ecx
 80496e9:	b8 01 00 00 00       	mov    $0x1,%eax
 80496ee:	80 f9 0f             	cmp    $0xf,%cl
 80496f1:	77 0d                	ja     8049700 <submitr+0x342>
 80496f3:	b8 d9 ff 00 00       	mov    $0xffd9,%eax
 80496f8:	d3 e8                	shr    %cl,%eax
 80496fa:	83 f0 01             	xor    $0x1,%eax
 80496fd:	83 e0 01             	and    $0x1,%eax
 8049700:	80 fa 5f             	cmp    $0x5f,%dl
 8049703:	74 cd                	je     80496d2 <submitr+0x314>
 8049705:	84 c0                	test   %al,%al
 8049707:	74 c9                	je     80496d2 <submitr+0x314>
 8049709:	89 d0                	mov    %edx,%eax
 804970b:	83 e0 df             	and    $0xffffffdf,%eax
 804970e:	83 e8 41             	sub    $0x41,%eax
 8049711:	3c 19                	cmp    $0x19,%al
 8049713:	76 bd                	jbe    80496d2 <submitr+0x314>
 8049715:	80 fa 20             	cmp    $0x20,%dl
 8049718:	74 58                	je     8049772 <submitr+0x3b4>
 804971a:	8d 42 e0             	lea    -0x20(%edx),%eax
 804971d:	3c 5f                	cmp    $0x5f,%al
 804971f:	76 09                	jbe    804972a <submitr+0x36c>
 8049721:	80 fa 09             	cmp    $0x9,%dl
 8049724:	0f 85 c5 03 00 00    	jne    8049aef <submitr+0x731>
 804972a:	83 ec 0c             	sub    $0xc,%esp
 804972d:	0f b6 d2             	movzbl %dl,%edx
 8049730:	52                   	push   %edx
 8049731:	68 9c a3 04 08       	push   $0x804a39c
 8049736:	6a 08                	push   $0x8
 8049738:	6a 01                	push   $0x1
 804973a:	8d 84 24 68 80 00 00 	lea    0x8068(%esp),%eax
 8049741:	50                   	push   %eax
 8049742:	e8 79 f1 ff ff       	call   80488c0 <__sprintf_chk@plt>
 8049747:	0f b6 84 24 6c 80 00 	movzbl 0x806c(%esp),%eax
 804974e:	00 
 804974f:	88 07                	mov    %al,(%edi)
 8049751:	0f b6 84 24 6d 80 00 	movzbl 0x806d(%esp),%eax
 8049758:	00 
 8049759:	88 47 01             	mov    %al,0x1(%edi)
 804975c:	0f b6 84 24 6e 80 00 	movzbl 0x806e(%esp),%eax
 8049763:	00 
 8049764:	88 47 02             	mov    %al,0x2(%edi)
 8049767:	83 c4 20             	add    $0x20,%esp
 804976a:	8d 7f 03             	lea    0x3(%edi),%edi
 804976d:	e9 65 ff ff ff       	jmp    80496d7 <submitr+0x319>
 8049772:	c6 07 2b             	movb   $0x2b,(%edi)
 8049775:	8d 7f 01             	lea    0x1(%edi),%edi
 8049778:	e9 5a ff ff ff       	jmp    80496d7 <submitr+0x319>
 804977d:	01 c6                	add    %eax,%esi
 804977f:	29 c3                	sub    %eax,%ebx
 8049781:	74 24                	je     80497a7 <submitr+0x3e9>
 8049783:	83 ec 04             	sub    $0x4,%esp
 8049786:	53                   	push   %ebx
 8049787:	56                   	push   %esi
 8049788:	55                   	push   %ebp
 8049789:	e8 72 f0 ff ff       	call   8048800 <write@plt>
 804978e:	83 c4 10             	add    $0x10,%esp
 8049791:	85 c0                	test   %eax,%eax
 8049793:	7f e8                	jg     804977d <submitr+0x3bf>
 8049795:	e8 96 f0 ff ff       	call   8048830 <__errno_location@plt>
 804979a:	83 38 04             	cmpl   $0x4,(%eax)
 804979d:	0f 85 b0 00 00 00    	jne    8049853 <submitr+0x495>
 80497a3:	89 f8                	mov    %edi,%eax
 80497a5:	eb d6                	jmp    804977d <submitr+0x3bf>
 80497a7:	83 7c 24 08 00       	cmpl   $0x0,0x8(%esp)
 80497ac:	0f 88 a1 00 00 00    	js     8049853 <submitr+0x495>
 80497b2:	89 6c 24 40          	mov    %ebp,0x40(%esp)
 80497b6:	c7 44 24 44 00 00 00 	movl   $0x0,0x44(%esp)
 80497bd:	00 
 80497be:	8d 44 24 4c          	lea    0x4c(%esp),%eax
 80497c2:	89 44 24 48          	mov    %eax,0x48(%esp)
 80497c6:	b9 00 20 00 00       	mov    $0x2000,%ecx
 80497cb:	8d 94 24 4c 20 00 00 	lea    0x204c(%esp),%edx
 80497d2:	8d 44 24 40          	lea    0x40(%esp),%eax
 80497d6:	e8 32 fb ff ff       	call   804930d <rio_readlineb>
 80497db:	85 c0                	test   %eax,%eax
 80497dd:	0f 8e d6 00 00 00    	jle    80498b9 <submitr+0x4fb>
 80497e3:	83 ec 0c             	sub    $0xc,%esp
 80497e6:	8d 84 24 58 80 00 00 	lea    0x8058(%esp),%eax
 80497ed:	50                   	push   %eax
 80497ee:	8d 44 24 3c          	lea    0x3c(%esp),%eax
 80497f2:	50                   	push   %eax
 80497f3:	8d 84 24 60 60 00 00 	lea    0x6060(%esp),%eax
 80497fa:	50                   	push   %eax
 80497fb:	68 a3 a3 04 08       	push   $0x804a3a3
 8049800:	8d 84 24 68 20 00 00 	lea    0x2068(%esp),%eax
 8049807:	50                   	push   %eax
 8049808:	e8 03 f0 ff ff       	call   8048810 <__isoc99_sscanf@plt>
 804980d:	8b 44 24 4c          	mov    0x4c(%esp),%eax
 8049811:	83 c4 20             	add    $0x20,%esp
 8049814:	3d c8 00 00 00       	cmp    $0xc8,%eax
 8049819:	0f 84 a6 01 00 00    	je     80499c5 <submitr+0x607>
 804981f:	83 ec 08             	sub    $0x8,%esp
 8049822:	8d 94 24 54 80 00 00 	lea    0x8054(%esp),%edx
 8049829:	52                   	push   %edx
 804982a:	50                   	push   %eax
 804982b:	68 b4 a2 04 08       	push   $0x804a2b4
 8049830:	6a ff                	push   $0xffffffff
 8049832:	6a 01                	push   $0x1
 8049834:	ff 74 24 30          	pushl  0x30(%esp)
 8049838:	e8 83 f0 ff ff       	call   80488c0 <__sprintf_chk@plt>
 804983d:	83 c4 14             	add    $0x14,%esp
 8049840:	55                   	push   %ebp
 8049841:	e8 5a f0 ff ff       	call   80488a0 <close@plt>
 8049846:	83 c4 10             	add    $0x10,%esp
 8049849:	b8 ff ff ff ff       	mov    $0xffffffff,%eax
 804984e:	e9 02 02 00 00       	jmp    8049a55 <submitr+0x697>
 8049853:	8b 44 24 14          	mov    0x14(%esp),%eax
 8049857:	c7 00 45 72 72 6f    	movl   $0x6f727245,(%eax)
 804985d:	c7 40 04 72 3a 20 43 	movl   $0x43203a72,0x4(%eax)
 8049864:	c7 40 08 6c 69 65 6e 	movl   $0x6e65696c,0x8(%eax)
 804986b:	c7 40 0c 74 20 75 6e 	movl   $0x6e752074,0xc(%eax)
 8049872:	c7 40 10 61 62 6c 65 	movl   $0x656c6261,0x10(%eax)
 8049879:	c7 40 14 20 74 6f 20 	movl   $0x206f7420,0x14(%eax)
 8049880:	c7 40 18 77 72 69 74 	movl   $0x74697277,0x18(%eax)
 8049887:	c7 40 1c 65 20 74 6f 	movl   $0x6f742065,0x1c(%eax)
 804988e:	c7 40 20 20 74 68 65 	movl   $0x65687420,0x20(%eax)
 8049895:	c7 40 24 20 73 65 72 	movl   $0x72657320,0x24(%eax)
 804989c:	c7 40 28 76 65 72 00 	movl   $0x726576,0x28(%eax)
 80498a3:	83 ec 0c             	sub    $0xc,%esp
 80498a6:	55                   	push   %ebp
 80498a7:	e8 f4 ef ff ff       	call   80488a0 <close@plt>
 80498ac:	83 c4 10             	add    $0x10,%esp
 80498af:	b8 ff ff ff ff       	mov    $0xffffffff,%eax
 80498b4:	e9 9c 01 00 00       	jmp    8049a55 <submitr+0x697>
 80498b9:	8b 44 24 14          	mov    0x14(%esp),%eax
 80498bd:	c7 00 45 72 72 6f    	movl   $0x6f727245,(%eax)
 80498c3:	c7 40 04 72 3a 20 43 	movl   $0x43203a72,0x4(%eax)
 80498ca:	c7 40 08 6c 69 65 6e 	movl   $0x6e65696c,0x8(%eax)
 80498d1:	c7 40 0c 74 20 75 6e 	movl   $0x6e752074,0xc(%eax)
 80498d8:	c7 40 10 61 62 6c 65 	movl   $0x656c6261,0x10(%eax)
 80498df:	c7 40 14 20 74 6f 20 	movl   $0x206f7420,0x14(%eax)
 80498e6:	c7 40 18 72 65 61 64 	movl   $0x64616572,0x18(%eax)
 80498ed:	c7 40 1c 20 66 69 72 	movl   $0x72696620,0x1c(%eax)
 80498f4:	c7 40 20 73 74 20 68 	movl   $0x68207473,0x20(%eax)
 80498fb:	c7 40 24 65 61 64 65 	movl   $0x65646165,0x24(%eax)
 8049902:	c7 40 28 72 20 66 72 	movl   $0x72662072,0x28(%eax)
 8049909:	c7 40 2c 6f 6d 20 73 	movl   $0x73206d6f,0x2c(%eax)
 8049910:	c7 40 30 65 72 76 65 	movl   $0x65767265,0x30(%eax)
 8049917:	66 c7 40 34 72 00    	movw   $0x72,0x34(%eax)
 804991d:	83 ec 0c             	sub    $0xc,%esp
 8049920:	55                   	push   %ebp
 8049921:	e8 7a ef ff ff       	call   80488a0 <close@plt>
 8049926:	83 c4 10             	add    $0x10,%esp
 8049929:	b8 ff ff ff ff       	mov    $0xffffffff,%eax
 804992e:	e9 22 01 00 00       	jmp    8049a55 <submitr+0x697>
 8049933:	8b 44 24 14          	mov    0x14(%esp),%eax
 8049937:	c7 00 45 72 72 6f    	movl   $0x6f727245,(%eax)
 804993d:	c7 40 04 72 3a 20 43 	movl   $0x43203a72,0x4(%eax)
 8049944:	c7 40 08 6c 69 65 6e 	movl   $0x6e65696c,0x8(%eax)
 804994b:	c7 40 0c 74 20 75 6e 	movl   $0x6e752074,0xc(%eax)
 8049952:	c7 40 10 61 62 6c 65 	movl   $0x656c6261,0x10(%eax)
 8049959:	c7 40 14 20 74 6f 20 	movl   $0x206f7420,0x14(%eax)
 8049960:	c7 40 18 72 65 61 64 	movl   $0x64616572,0x18(%eax)
 8049967:	c7 40 1c 20 68 65 61 	movl   $0x61656820,0x1c(%eax)
 804996e:	c7 40 20 64 65 72 73 	movl   $0x73726564,0x20(%eax)
 8049975:	c7 40 24 20 66 72 6f 	movl   $0x6f726620,0x24(%eax)
 804997c:	c7 40 28 6d 20 73 65 	movl   $0x6573206d,0x28(%eax)
 8049983:	c7 40 2c 72 76 65 72 	movl   $0x72657672,0x2c(%eax)
 804998a:	c6 40 30 00          	movb   $0x0,0x30(%eax)
 804998e:	83 ec 0c             	sub    $0xc,%esp
 8049991:	55                   	push   %ebp
 8049992:	e8 09 ef ff ff       	call   80488a0 <close@plt>
 8049997:	83 c4 10             	add    $0x10,%esp
 804999a:	b8 ff ff ff ff       	mov    $0xffffffff,%eax
 804999f:	e9 b1 00 00 00       	jmp    8049a55 <submitr+0x697>
 80499a4:	85 c0                	test   %eax,%eax
 80499a6:	74 4b                	je     80499f3 <submitr+0x635>
 80499a8:	b9 00 20 00 00       	mov    $0x2000,%ecx
 80499ad:	8d 94 24 4c 20 00 00 	lea    0x204c(%esp),%edx
 80499b4:	8d 44 24 40          	lea    0x40(%esp),%eax
 80499b8:	e8 50 f9 ff ff       	call   804930d <rio_readlineb>
 80499bd:	85 c0                	test   %eax,%eax
 80499bf:	0f 8e 6e ff ff ff    	jle    8049933 <submitr+0x575>
 80499c5:	0f b6 94 24 4c 20 00 	movzbl 0x204c(%esp),%edx
 80499cc:	00 
 80499cd:	b8 0d 00 00 00       	mov    $0xd,%eax
 80499d2:	29 d0                	sub    %edx,%eax
 80499d4:	75 ce                	jne    80499a4 <submitr+0x5e6>
 80499d6:	0f b6 94 24 4d 20 00 	movzbl 0x204d(%esp),%edx
 80499dd:	00 
 80499de:	b8 0a 00 00 00       	mov    $0xa,%eax
 80499e3:	29 d0                	sub    %edx,%eax
 80499e5:	75 bd                	jne    80499a4 <submitr+0x5e6>
 80499e7:	0f b6 84 24 4e 20 00 	movzbl 0x204e(%esp),%eax
 80499ee:	00 
 80499ef:	f7 d8                	neg    %eax
 80499f1:	eb b1                	jmp    80499a4 <submitr+0x5e6>
 80499f3:	b9 00 20 00 00       	mov    $0x2000,%ecx
 80499f8:	8d 94 24 4c 20 00 00 	lea    0x204c(%esp),%edx
 80499ff:	8d 44 24 40          	lea    0x40(%esp),%eax
 8049a03:	e8 05 f9 ff ff       	call   804930d <rio_readlineb>
 8049a08:	85 c0                	test   %eax,%eax
 8049a0a:	7e 68                	jle    8049a74 <submitr+0x6b6>
 8049a0c:	83 ec 08             	sub    $0x8,%esp
 8049a0f:	8d 84 24 54 20 00 00 	lea    0x2054(%esp),%eax
 8049a16:	50                   	push   %eax
 8049a17:	8b 7c 24 20          	mov    0x20(%esp),%edi
 8049a1b:	57                   	push   %edi
 8049a1c:	e8 7f ed ff ff       	call   80487a0 <strcpy@plt>
 8049a21:	89 2c 24             	mov    %ebp,(%esp)
 8049a24:	e8 77 ee ff ff       	call   80488a0 <close@plt>
 8049a29:	0f b6 17             	movzbl (%edi),%edx
 8049a2c:	b8 4f 00 00 00       	mov    $0x4f,%eax
 8049a31:	83 c4 10             	add    $0x10,%esp
 8049a34:	29 d0                	sub    %edx,%eax
 8049a36:	75 13                	jne    8049a4b <submitr+0x68d>
 8049a38:	0f b6 57 01          	movzbl 0x1(%edi),%edx
 8049a3c:	b8 4b 00 00 00       	mov    $0x4b,%eax
 8049a41:	29 d0                	sub    %edx,%eax
 8049a43:	75 06                	jne    8049a4b <submitr+0x68d>
 8049a45:	0f b6 47 02          	movzbl 0x2(%edi),%eax
 8049a49:	f7 d8                	neg    %eax
 8049a4b:	85 c0                	test   %eax,%eax
 8049a4d:	0f 95 c0             	setne  %al
 8049a50:	0f b6 c0             	movzbl %al,%eax
 8049a53:	f7 d8                	neg    %eax
 8049a55:	8b bc 24 4c a0 00 00 	mov    0xa04c(%esp),%edi
 8049a5c:	65 33 3d 14 00 00 00 	xor    %gs:0x14,%edi
 8049a63:	0f 85 2a 01 00 00    	jne    8049b93 <submitr+0x7d5>
 8049a69:	81 c4 5c a0 00 00    	add    $0xa05c,%esp
 8049a6f:	5b                   	pop    %ebx
 8049a70:	5e                   	pop    %esi
 8049a71:	5f                   	pop    %edi
 8049a72:	5d                   	pop    %ebp
 8049a73:	c3                   	ret    
 8049a74:	8b 44 24 14          	mov    0x14(%esp),%eax
 8049a78:	c7 00 45 72 72 6f    	movl   $0x6f727245,(%eax)
 8049a7e:	c7 40 04 72 3a 20 43 	movl   $0x43203a72,0x4(%eax)
 8049a85:	c7 40 08 6c 69 65 6e 	movl   $0x6e65696c,0x8(%eax)
 8049a8c:	c7 40 0c 74 20 75 6e 	movl   $0x6e752074,0xc(%eax)
 8049a93:	c7 40 10 61 62 6c 65 	movl   $0x656c6261,0x10(%eax)
 8049a9a:	c7 40 14 20 74 6f 20 	movl   $0x206f7420,0x14(%eax)
 8049aa1:	c7 40 18 72 65 61 64 	movl   $0x64616572,0x18(%eax)
 8049aa8:	c7 40 1c 20 73 74 61 	movl   $0x61747320,0x1c(%eax)
 8049aaf:	c7 40 20 74 75 73 20 	movl   $0x20737574,0x20(%eax)
 8049ab6:	c7 40 24 6d 65 73 73 	movl   $0x7373656d,0x24(%eax)
 8049abd:	c7 40 28 61 67 65 20 	movl   $0x20656761,0x28(%eax)
 8049ac4:	c7 40 2c 66 72 6f 6d 	movl   $0x6d6f7266,0x2c(%eax)
 8049acb:	c7 40 30 20 73 65 72 	movl   $0x72657320,0x30(%eax)
 8049ad2:	c7 40 34 76 65 72 00 	movl   $0x726576,0x34(%eax)
 8049ad9:	83 ec 0c             	sub    $0xc,%esp
 8049adc:	55                   	push   %ebp
 8049add:	e8 be ed ff ff       	call   80488a0 <close@plt>
 8049ae2:	83 c4 10             	add    $0x10,%esp
 8049ae5:	b8 ff ff ff ff       	mov    $0xffffffff,%eax
 8049aea:	e9 66 ff ff ff       	jmp    8049a55 <submitr+0x697>
 8049aef:	a1 e4 a2 04 08       	mov    0x804a2e4,%eax
 8049af4:	8b 5c 24 14          	mov    0x14(%esp),%ebx
 8049af8:	89 03                	mov    %eax,(%ebx)
 8049afa:	a1 23 a3 04 08       	mov    0x804a323,%eax
 8049aff:	89 43 3f             	mov    %eax,0x3f(%ebx)
 8049b02:	8d 7b 04             	lea    0x4(%ebx),%edi
 8049b05:	83 e7 fc             	and    $0xfffffffc,%edi
 8049b08:	29 fb                	sub    %edi,%ebx
 8049b0a:	89 d8                	mov    %ebx,%eax
 8049b0c:	be e4 a2 04 08       	mov    $0x804a2e4,%esi
 8049b11:	29 de                	sub    %ebx,%esi
 8049b13:	83 c0 43             	add    $0x43,%eax
 8049b16:	c1 e8 02             	shr    $0x2,%eax
 8049b19:	89 c1                	mov    %eax,%ecx
 8049b1b:	f3 a5                	rep movsl %ds:(%esi),%es:(%edi)
 8049b1d:	83 ec 0c             	sub    $0xc,%esp
 8049b20:	55                   	push   %ebp
 8049b21:	e8 7a ed ff ff       	call   80488a0 <close@plt>
 8049b26:	83 c4 10             	add    $0x10,%esp
 8049b29:	b8 ff ff ff ff       	mov    $0xffffffff,%eax
 8049b2e:	e9 22 ff ff ff       	jmp    8049a55 <submitr+0x697>
 8049b33:	8d 84 24 4c 40 00 00 	lea    0x404c(%esp),%eax
 8049b3a:	50                   	push   %eax
 8049b3b:	ff 74 24 14          	pushl  0x14(%esp)
 8049b3f:	ff 74 24 14          	pushl  0x14(%esp)
 8049b43:	ff 74 24 14          	pushl  0x14(%esp)
 8049b47:	68 28 a3 04 08       	push   $0x804a328
 8049b4c:	68 00 20 00 00       	push   $0x2000
 8049b51:	6a 01                	push   $0x1
 8049b53:	8d bc 24 68 20 00 00 	lea    0x2068(%esp),%edi
 8049b5a:	57                   	push   %edi
 8049b5b:	e8 60 ed ff ff       	call   80488c0 <__sprintf_chk@plt>
 8049b60:	b8 00 00 00 00       	mov    $0x0,%eax
 8049b65:	b9 ff ff ff ff       	mov    $0xffffffff,%ecx
 8049b6a:	f2 ae                	repnz scas %es:(%edi),%al
 8049b6c:	f7 d1                	not    %ecx
 8049b6e:	8d 41 ff             	lea    -0x1(%ecx),%eax
 8049b71:	89 44 24 28          	mov    %eax,0x28(%esp)
 8049b75:	83 c4 20             	add    $0x20,%esp
 8049b78:	89 c3                	mov    %eax,%ebx
 8049b7a:	8d b4 24 4c 20 00 00 	lea    0x204c(%esp),%esi
 8049b81:	bf 00 00 00 00       	mov    $0x0,%edi
 8049b86:	85 c0                	test   %eax,%eax
 8049b88:	0f 85 f5 fb ff ff    	jne    8049783 <submitr+0x3c5>
 8049b8e:	e9 1f fc ff ff       	jmp    80497b2 <submitr+0x3f4>
 8049b93:	e8 f8 eb ff ff       	call   8048790 <__stack_chk_fail@plt>

08049b98 <init_timeout>:
 8049b98:	53                   	push   %ebx
 8049b99:	83 ec 08             	sub    $0x8,%esp
 8049b9c:	8b 5c 24 10          	mov    0x10(%esp),%ebx
 8049ba0:	85 db                	test   %ebx,%ebx
 8049ba2:	74 24                	je     8049bc8 <init_timeout+0x30>
 8049ba4:	83 ec 08             	sub    $0x8,%esp
 8049ba7:	68 ea 92 04 08       	push   $0x80492ea
 8049bac:	6a 0e                	push   $0xe
 8049bae:	e8 ad eb ff ff       	call   8048760 <signal@plt>
 8049bb3:	85 db                	test   %ebx,%ebx
 8049bb5:	b8 00 00 00 00       	mov    $0x0,%eax
 8049bba:	0f 48 d8             	cmovs  %eax,%ebx
 8049bbd:	89 1c 24             	mov    %ebx,(%esp)
 8049bc0:	e8 bb eb ff ff       	call   8048780 <alarm@plt>
 8049bc5:	83 c4 10             	add    $0x10,%esp
 8049bc8:	83 c4 08             	add    $0x8,%esp
 8049bcb:	5b                   	pop    %ebx
 8049bcc:	c3                   	ret    

08049bcd <init_driver>:
 8049bcd:	57                   	push   %edi
 8049bce:	56                   	push   %esi
 8049bcf:	53                   	push   %ebx
 8049bd0:	83 ec 28             	sub    $0x28,%esp
 8049bd3:	8b 74 24 38          	mov    0x38(%esp),%esi
 8049bd7:	65 a1 14 00 00 00    	mov    %gs:0x14,%eax
 8049bdd:	89 44 24 24          	mov    %eax,0x24(%esp)
 8049be1:	31 c0                	xor    %eax,%eax
 8049be3:	6a 01                	push   $0x1
 8049be5:	6a 0d                	push   $0xd
 8049be7:	e8 74 eb ff ff       	call   8048760 <signal@plt>
 8049bec:	83 c4 08             	add    $0x8,%esp
 8049bef:	6a 01                	push   $0x1
 8049bf1:	6a 1d                	push   $0x1d
 8049bf3:	e8 68 eb ff ff       	call   8048760 <signal@plt>
 8049bf8:	83 c4 08             	add    $0x8,%esp
 8049bfb:	6a 01                	push   $0x1
 8049bfd:	6a 1d                	push   $0x1d
 8049bff:	e8 5c eb ff ff       	call   8048760 <signal@plt>
 8049c04:	83 c4 0c             	add    $0xc,%esp
 8049c07:	6a 00                	push   $0x0
 8049c09:	6a 01                	push   $0x1
 8049c0b:	6a 02                	push   $0x2
 8049c0d:	e8 3e ec ff ff       	call   8048850 <socket@plt>
 8049c12:	83 c4 10             	add    $0x10,%esp
 8049c15:	85 c0                	test   %eax,%eax
 8049c17:	0f 88 a9 00 00 00    	js     8049cc6 <init_driver+0xf9>
 8049c1d:	89 c3                	mov    %eax,%ebx
 8049c1f:	83 ec 0c             	sub    $0xc,%esp
 8049c22:	68 b4 a3 04 08       	push   $0x804a3b4
 8049c27:	e8 44 ec ff ff       	call   8048870 <gethostbyname@plt>
 8049c2c:	83 c4 10             	add    $0x10,%esp
 8049c2f:	85 c0                	test   %eax,%eax
 8049c31:	0f 84 da 00 00 00    	je     8049d11 <init_driver+0x144>
 8049c37:	8d 7c 24 0c          	lea    0xc(%esp),%edi
 8049c3b:	c7 44 24 0c 00 00 00 	movl   $0x0,0xc(%esp)
 8049c42:	00 
 8049c43:	c7 44 24 10 00 00 00 	movl   $0x0,0x10(%esp)
 8049c4a:	00 
 8049c4b:	c7 44 24 14 00 00 00 	movl   $0x0,0x14(%esp)
 8049c52:	00 
 8049c53:	c7 44 24 18 00 00 00 	movl   $0x0,0x18(%esp)
 8049c5a:	00 
 8049c5b:	66 c7 44 24 0c 02 00 	movw   $0x2,0xc(%esp)
 8049c62:	6a 0c                	push   $0xc
 8049c64:	ff 70 0c             	pushl  0xc(%eax)
 8049c67:	8b 40 10             	mov    0x10(%eax),%eax
 8049c6a:	ff 30                	pushl  (%eax)
 8049c6c:	8d 44 24 1c          	lea    0x1c(%esp),%eax
 8049c70:	50                   	push   %eax
 8049c71:	e8 5a eb ff ff       	call   80487d0 <__memmove_chk@plt>
 8049c76:	66 c7 44 24 1e 3b 6e 	movw   $0x6e3b,0x1e(%esp)
 8049c7d:	83 c4 0c             	add    $0xc,%esp
 8049c80:	6a 10                	push   $0x10
 8049c82:	57                   	push   %edi
 8049c83:	53                   	push   %ebx
 8049c84:	e8 07 ec ff ff       	call   8048890 <connect@plt>
 8049c89:	83 c4 10             	add    $0x10,%esp
 8049c8c:	85 c0                	test   %eax,%eax
 8049c8e:	0f 88 e9 00 00 00    	js     8049d7d <init_driver+0x1b0>
 8049c94:	83 ec 0c             	sub    $0xc,%esp
 8049c97:	53                   	push   %ebx
 8049c98:	e8 03 ec ff ff       	call   80488a0 <close@plt>
 8049c9d:	66 c7 06 4f 4b       	movw   $0x4b4f,(%esi)
 8049ca2:	c6 46 02 00          	movb   $0x0,0x2(%esi)
 8049ca6:	83 c4 10             	add    $0x10,%esp
 8049ca9:	b8 00 00 00 00       	mov    $0x0,%eax
 8049cae:	8b 54 24 1c          	mov    0x1c(%esp),%edx
 8049cb2:	65 33 15 14 00 00 00 	xor    %gs:0x14,%edx
 8049cb9:	0f 85 eb 00 00 00    	jne    8049daa <init_driver+0x1dd>
 8049cbf:	83 c4 20             	add    $0x20,%esp
 8049cc2:	5b                   	pop    %ebx
 8049cc3:	5e                   	pop    %esi
 8049cc4:	5f                   	pop    %edi
 8049cc5:	c3                   	ret    
 8049cc6:	c7 06 45 72 72 6f    	movl   $0x6f727245,(%esi)
 8049ccc:	c7 46 04 72 3a 20 43 	movl   $0x43203a72,0x4(%esi)
 8049cd3:	c7 46 08 6c 69 65 6e 	movl   $0x6e65696c,0x8(%esi)
 8049cda:	c7 46 0c 74 20 75 6e 	movl   $0x6e752074,0xc(%esi)
 8049ce1:	c7 46 10 61 62 6c 65 	movl   $0x656c6261,0x10(%esi)
 8049ce8:	c7 46 14 20 74 6f 20 	movl   $0x206f7420,0x14(%esi)
 8049cef:	c7 46 18 63 72 65 61 	movl   $0x61657263,0x18(%esi)
 8049cf6:	c7 46 1c 74 65 20 73 	movl   $0x73206574,0x1c(%esi)
 8049cfd:	c7 46 20 6f 63 6b 65 	movl   $0x656b636f,0x20(%esi)
 8049d04:	66 c7 46 24 74 00    	movw   $0x74,0x24(%esi)
 8049d0a:	b8 ff ff ff ff       	mov    $0xffffffff,%eax
 8049d0f:	eb 9d                	jmp    8049cae <init_driver+0xe1>
 8049d11:	c7 06 45 72 72 6f    	movl   $0x6f727245,(%esi)
 8049d17:	c7 46 04 72 3a 20 44 	movl   $0x44203a72,0x4(%esi)
 8049d1e:	c7 46 08 4e 53 20 69 	movl   $0x6920534e,0x8(%esi)
 8049d25:	c7 46 0c 73 20 75 6e 	movl   $0x6e752073,0xc(%esi)
 8049d2c:	c7 46 10 61 62 6c 65 	movl   $0x656c6261,0x10(%esi)
 8049d33:	c7 46 14 20 74 6f 20 	movl   $0x206f7420,0x14(%esi)
 8049d3a:	c7 46 18 72 65 73 6f 	movl   $0x6f736572,0x18(%esi)
 8049d41:	c7 46 1c 6c 76 65 20 	movl   $0x2065766c,0x1c(%esi)
 8049d48:	c7 46 20 73 65 72 76 	movl   $0x76726573,0x20(%esi)
 8049d4f:	c7 46 24 65 72 20 61 	movl   $0x61207265,0x24(%esi)
 8049d56:	c7 46 28 64 64 72 65 	movl   $0x65726464,0x28(%esi)
 8049d5d:	66 c7 46 2c 73 73    	movw   $0x7373,0x2c(%esi)
 8049d63:	c6 46 2e 00          	movb   $0x0,0x2e(%esi)
 8049d67:	83 ec 0c             	sub    $0xc,%esp
 8049d6a:	53                   	push   %ebx
 8049d6b:	e8 30 eb ff ff       	call   80488a0 <close@plt>
 8049d70:	83 c4 10             	add    $0x10,%esp
 8049d73:	b8 ff ff ff ff       	mov    $0xffffffff,%eax
 8049d78:	e9 31 ff ff ff       	jmp    8049cae <init_driver+0xe1>
 8049d7d:	83 ec 0c             	sub    $0xc,%esp
 8049d80:	68 b4 a3 04 08       	push   $0x804a3b4
 8049d85:	68 74 a3 04 08       	push   $0x804a374
 8049d8a:	6a ff                	push   $0xffffffff
 8049d8c:	6a 01                	push   $0x1
 8049d8e:	56                   	push   %esi
 8049d8f:	e8 2c eb ff ff       	call   80488c0 <__sprintf_chk@plt>
 8049d94:	83 c4 14             	add    $0x14,%esp
 8049d97:	53                   	push   %ebx
 8049d98:	e8 03 eb ff ff       	call   80488a0 <close@plt>
 8049d9d:	83 c4 10             	add    $0x10,%esp
 8049da0:	b8 ff ff ff ff       	mov    $0xffffffff,%eax
 8049da5:	e9 04 ff ff ff       	jmp    8049cae <init_driver+0xe1>
 8049daa:	e8 e1 e9 ff ff       	call   8048790 <__stack_chk_fail@plt>

08049daf <driver_post>:
 8049daf:	53                   	push   %ebx
 8049db0:	83 ec 08             	sub    $0x8,%esp
 8049db3:	8b 54 24 10          	mov    0x10(%esp),%edx
 8049db7:	8b 44 24 18          	mov    0x18(%esp),%eax
 8049dbb:	8b 5c 24 1c          	mov    0x1c(%esp),%ebx
 8049dbf:	85 c0                	test   %eax,%eax
 8049dc1:	75 17                	jne    8049dda <driver_post+0x2b>
 8049dc3:	85 d2                	test   %edx,%edx
 8049dc5:	74 05                	je     8049dcc <driver_post+0x1d>
 8049dc7:	80 3a 00             	cmpb   $0x0,(%edx)
 8049dca:	75 34                	jne    8049e00 <driver_post+0x51>
 8049dcc:	66 c7 03 4f 4b       	movw   $0x4b4f,(%ebx)
 8049dd1:	c6 43 02 00          	movb   $0x0,0x2(%ebx)
 8049dd5:	83 c4 08             	add    $0x8,%esp
 8049dd8:	5b                   	pop    %ebx
 8049dd9:	c3                   	ret    
 8049dda:	83 ec 04             	sub    $0x4,%esp
 8049ddd:	ff 74 24 18          	pushl  0x18(%esp)
 8049de1:	68 c2 a3 04 08       	push   $0x804a3c2
 8049de6:	6a 01                	push   $0x1
 8049de8:	e8 53 ea ff ff       	call   8048840 <__printf_chk@plt>
 8049ded:	66 c7 03 4f 4b       	movw   $0x4b4f,(%ebx)
 8049df2:	c6 43 02 00          	movb   $0x0,0x2(%ebx)
 8049df6:	83 c4 10             	add    $0x10,%esp
 8049df9:	b8 00 00 00 00       	mov    $0x0,%eax
 8049dfe:	eb d5                	jmp    8049dd5 <driver_post+0x26>
 8049e00:	83 ec 04             	sub    $0x4,%esp
 8049e03:	53                   	push   %ebx
 8049e04:	ff 74 24 1c          	pushl  0x1c(%esp)
 8049e08:	68 d9 a3 04 08       	push   $0x804a3d9
 8049e0d:	52                   	push   %edx
 8049e0e:	68 e1 a3 04 08       	push   $0x804a3e1
 8049e13:	68 6e 3b 00 00       	push   $0x3b6e
 8049e18:	68 b4 a3 04 08       	push   $0x804a3b4
 8049e1d:	e8 9c f5 ff ff       	call   80493be <submitr>
 8049e22:	83 c4 20             	add    $0x20,%esp
 8049e25:	eb ae                	jmp    8049dd5 <driver_post+0x26>
 8049e27:	66 90                	xchg   %ax,%ax
 8049e29:	66 90                	xchg   %ax,%ax
 8049e2b:	66 90                	xchg   %ax,%ax
 8049e2d:	66 90                	xchg   %ax,%ax
 8049e2f:	90                   	nop

08049e30 <__libc_csu_init>:
 8049e30:	55                   	push   %ebp
 8049e31:	57                   	push   %edi
 8049e32:	56                   	push   %esi
 8049e33:	53                   	push   %ebx
 8049e34:	e8 d7 ea ff ff       	call   8048910 <__x86.get_pc_thunk.bx>
 8049e39:	81 c3 c7 21 00 00    	add    $0x21c7,%ebx
 8049e3f:	83 ec 0c             	sub    $0xc,%esp
 8049e42:	8b 6c 24 20          	mov    0x20(%esp),%ebp
 8049e46:	8d b3 0c ff ff ff    	lea    -0xf4(%ebx),%esi
 8049e4c:	e8 a3 e8 ff ff       	call   80486f4 <_init>
 8049e51:	8d 83 08 ff ff ff    	lea    -0xf8(%ebx),%eax
 8049e57:	29 c6                	sub    %eax,%esi
 8049e59:	c1 fe 02             	sar    $0x2,%esi
 8049e5c:	85 f6                	test   %esi,%esi
 8049e5e:	74 25                	je     8049e85 <__libc_csu_init+0x55>
 8049e60:	31 ff                	xor    %edi,%edi
 8049e62:	8d b6 00 00 00 00    	lea    0x0(%esi),%esi
 8049e68:	83 ec 04             	sub    $0x4,%esp
 8049e6b:	ff 74 24 2c          	pushl  0x2c(%esp)
 8049e6f:	ff 74 24 2c          	pushl  0x2c(%esp)
 8049e73:	55                   	push   %ebp
 8049e74:	ff 94 bb 08 ff ff ff 	call   *-0xf8(%ebx,%edi,4)
 8049e7b:	83 c7 01             	add    $0x1,%edi
 8049e7e:	83 c4 10             	add    $0x10,%esp
 8049e81:	39 fe                	cmp    %edi,%esi
 8049e83:	75 e3                	jne    8049e68 <__libc_csu_init+0x38>
 8049e85:	83 c4 0c             	add    $0xc,%esp
 8049e88:	5b                   	pop    %ebx
 8049e89:	5e                   	pop    %esi
 8049e8a:	5f                   	pop    %edi
 8049e8b:	5d                   	pop    %ebp
 8049e8c:	c3                   	ret    
 8049e8d:	8d 76 00             	lea    0x0(%esi),%esi

08049e90 <__libc_csu_fini>:
 8049e90:	f3 c3                	repz ret 

Disassembly of section .fini:

08049e94 <_fini>:
 8049e94:	53                   	push   %ebx
 8049e95:	83 ec 08             	sub    $0x8,%esp
 8049e98:	e8 73 ea ff ff       	call   8048910 <__x86.get_pc_thunk.bx>
 8049e9d:	81 c3 63 21 00 00    	add    $0x2163,%ebx
 8049ea3:	83 c4 08             	add    $0x8,%esp
 8049ea6:	5b                   	pop    %ebx
 8049ea7:	c3                   	ret    
